CCS PCH C Compiler, Version 4.135, 4375               30-Oct-15 13:16

               Filename: C:\Users\James Jarvis\Desktop\planetPrecision\pcwx\pcwx.lst

               ROM used: 9190 bytes (14%)
                         Largest free fragment is 56342
               RAM used: 711 (18%) at main() level
                         745 (19%) worst case
               Stack:    9 worst case (6 in main + 3 for interrupts)

*
00000:  GOTO   2168
*
00008:  GOTO   00CA
0000C:  NOP   
0000E:  NOP   
00010:  NOP   
00012:  NOP   
00014:  NOP   
00016:  NOP   
00018:  MOVWF  04
0001A:  MOVFF  FD8,05
0001E:  MOVFF  FE0,06
00022:  MOVLB  0
00024:  MOVFF  FE9,0C
00028:  MOVFF  FEA,07
0002C:  MOVFF  FE1,08
00030:  MOVFF  FE2,09
00034:  MOVFF  FD9,0A
00038:  MOVFF  FDA,0B
0003C:  MOVFF  FF3,12
00040:  MOVFF  FF4,13
00044:  MOVFF  FFA,14
00048:  MOVFF  FF5,15
0004C:  MOVFF  FF6,16
00050:  MOVFF  FF7,17
00054:  MOVFF  00,0E
00058:  MOVFF  01,0F
0005C:  MOVFF  02,10
00060:  MOVFF  03,11
00064:  BTFSS  FF2.5
00066:  GOTO   0070
0006A:  BTFSC  FF2.2
0006C:  GOTO   03A4
00070:  BTFSS  F9D.5
00072:  GOTO   007C
00076:  BTFSC  F9E.5
00078:  GOTO   065E
0007C:  MOVFF  0E,00
00080:  MOVFF  0F,01
00084:  MOVFF  10,02
00088:  MOVFF  11,03
0008C:  MOVFF  0C,FE9
00090:  MOVFF  07,FEA
00094:  BSF    07.7
00096:  MOVFF  08,FE1
0009A:  MOVFF  09,FE2
0009E:  MOVFF  0A,FD9
000A2:  MOVFF  0B,FDA
000A6:  MOVFF  12,FF3
000AA:  MOVFF  13,FF4
000AE:  MOVFF  14,FFA
000B2:  MOVFF  15,FF5
000B6:  MOVFF  16,FF6
000BA:  MOVFF  17,FF7
000BE:  MOVF   04,W
000C0:  MOVFF  06,FE0
000C4:  MOVFF  05,FD8
000C8:  RETFIE 0
000CA:  MOVWF  1A
000CC:  MOVFF  FD8,1B
000D0:  MOVFF  FE0,1C
000D4:  MOVLB  0
000D6:  MOVFF  FE9,22
000DA:  MOVFF  FEA,1D
000DE:  MOVFF  FE1,1E
000E2:  MOVFF  FE2,1F
000E6:  MOVFF  FD9,20
000EA:  MOVFF  FDA,21
000EE:  MOVFF  FF3,28
000F2:  MOVFF  FF4,29
000F6:  MOVFF  FFA,2A
000FA:  MOVFF  FF5,2B
000FE:  MOVFF  FF6,2C
00102:  MOVFF  FF7,2D
00106:  MOVFF  00,24
0010A:  MOVFF  01,25
0010E:  MOVFF  02,26
00112:  MOVFF  03,27
00116:  BTFSS  F9D.1
00118:  GOTO   0122
0011C:  BTFSC  F9E.1
0011E:  GOTO   03D6
00122:  MOVFF  24,00
00126:  MOVFF  25,01
0012A:  MOVFF  26,02
0012E:  MOVFF  27,03
00132:  MOVFF  22,FE9
00136:  MOVFF  1D,FEA
0013A:  BSF    1D.7
0013C:  MOVFF  1E,FE1
00140:  MOVFF  1F,FE2
00144:  MOVFF  20,FD9
00148:  MOVFF  21,FDA
0014C:  MOVFF  28,FF3
00150:  MOVFF  29,FF4
00154:  MOVFF  2A,FFA
00158:  MOVFF  2B,FF5
0015C:  MOVFF  2C,FF6
00160:  MOVFF  2D,FF7
00164:  MOVF   1A,W
00166:  MOVFF  1C,FE0
0016A:  MOVFF  1B,FD8
0016E:  RETFIE 0
.................... #include "pcwx.h" 
.................... #include <18F46K22.h> 
.................... //////// Standard Header file for the PIC18F46K22 device //////////////// 
.................... #device PIC18F46K22 
.................... #list 
....................  
.................... #device ADC=12 
.................... #device *=16 
.................... #device HIGH_INTS=TRUE /* allow high priority "FAST" interrutps */ 
....................  
.................... #include <stdlib.h> 
.................... /////////////////////////////////////////////////////////////////////////// 
.................... ////        (C) Copyright 1996,2007 Custom Computer Services           //// 
.................... //// This source code may only be used by licensed users of the CCS C  //// 
.................... //// compiler.  This source code may only be distributed to other      //// 
.................... //// licensed users of the CCS C compiler.  No other use, reproduction //// 
.................... //// or distribution is permitted without written permission.          //// 
.................... //// Derivative programs created using this software in object code    //// 
.................... //// form are not restricted in any way.                               //// 
.................... /////////////////////////////////////////////////////////////////////////// 
....................  
.................... #ifndef _STDLIB 
.................... #define _STDLIB 
....................  
.................... //--------------------------------------------------------------------------- 
.................... // Definitions and types 
.................... //--------------------------------------------------------------------------- 
....................  
.................... #ifndef RAND_MAX 
.................... #define RAND_MAX  32767    // The value of which is the maximum value 
....................                            // ... returned by the rand function 
.................... #endif 
....................  
....................  
.................... #IF (sizeof(int16*)>1) 
.................... #DEFINE LONG_POINTERS 1 
.................... #ELSE  
.................... #DEFINE LONG_POINTERS 0 
.................... #ENDIF 
....................  
.................... typedef struct { 
....................    signed int quot; 
....................    signed int rem; 
.................... } div_t; 
....................  
.................... typedef struct { 
....................    signed long quot; 
....................    signed long rem; 
.................... } ldiv_t; 
....................  
.................... #include <stddef.h> 
.................... /////////////////////////////////////////////////////////////////////////// 
.................... ////        (C) Copyright 1996,2003 Custom Computer Services           //// 
.................... //// This source code may only be used by licensed users of the CCS C  //// 
.................... //// compiler.  This source code may only be distributed to other      //// 
.................... //// licensed users of the CCS C compiler.  No other use, reproduction //// 
.................... //// or distribution is permitted without written permission.          //// 
.................... //// Derivative programs created using this software in object code    //// 
.................... //// form are not restricted in any way.                               //// 
.................... /////////////////////////////////////////////////////////////////////////// 
....................  
.................... #ifndef _STDDEF 
....................  
.................... #define _STDDEF 
....................  
.................... #if sizeof(unsigned int8 *)==1 
.................... #define ptrdiff_t unsigned int8 
.................... #else 
.................... #define ptrdiff_t unsigned int16 
.................... #endif 
....................  
.................... #if defined(__PCB__) 
.................... #define size_t unsigned int8 
.................... #else 
.................... #define size_t unsigned int16 
.................... #endif 
.................... #define wchar_t char 
.................... #define NULL 0 
....................  
.................... #define offsetof(s,f) (offsetofbit(s,f)/8) 
....................  
.................... #endif 
....................  
....................  
.................... //--------------------------------------------------------------------------- 
.................... // String conversion functions 
.................... //--------------------------------------------------------------------------- 
....................  
.................... /* Standard template: signed int  atoi(char * s) 
....................  * converts the initial portion of the string s to a signed int 
....................  * returns the converted value if any, 0 otherwise 
....................  */ 
.................... signed int atoi(char *s); 
....................  
.................... /* Syntax: signed int32  atoi32(char * s) 
....................    converts the initial portion of the string s to a signed int32 
....................    returns the converted value if any, 0 otherwise*/ 
.................... #if (sizeof(long)==4) 
....................  #define atoi32(s) atol(s) 
.................... #else  
....................  signed int32 atoi32(char *s); 
.................... #endif 
....................  
.................... #if defined(__PCD__) 
.................... // The following functions only work on the 24 bit compiler 
.................... // for the 30F, 33F, 24F and 24H parts 
.................... /* Syntax: signed int48  atoi48(char * s) 
....................    converts the initial portion of the string s to a signed int48 
....................    returns the converted value if any, 0 otherwise*/ 
....................     
.................... signed int48 atoi48(char *s); 
....................  
.................... /* Syntax: signed int64  atoi64(char * s) 
....................    converts the initial portion of the string s to a signed int64 
....................    returns the converted value if any, 0 otherwise*/ 
.................... signed int64 atoi64(char *s); 
.................... #endif 
....................  
.................... /* Syntax: char *  itoa(signed int32 num, int8 base, char * s) 
....................    converts the signed int32 to a string and 
....................    returns the converted value if any, 0 otherwise*/ 
.................... char * itoa(signed int32 num, unsigned int base, char * s); 
....................  
.................... /* Standard template: signed int16  atol(char * s) 
....................  * converts the initial portion of the string s to a signed int16 
....................  * returns the converted value if any, 0 otherwise 
....................  */ 
.................... signed long atol(char *s); 
....................  
.................... /* Standard template: int16 strtoul(char * s,char *endptr,signed int base) 
....................  * converts the initial portion of the string s, represented as an 
....................  * integral value of radix base  to a signed long. 
....................  * Returns the converted value if any, 0 otherwise 
....................  * the final string is returned in the endptr, if endptr is not null 
....................  */ 
.................... signed long strtol(char *s,char *endptr, signed int base); 
....................  
.................... /* Standard template: int16 strtoul(char * s,char *endptr,signed int base) 
....................  * converts the initial portion of the string s, represented as an 
....................  * integral value of radix base to a unsigned long. 
....................  * returns the converted value if any, 0 otherwise 
....................  * the final string is returned in the endptr, if endptr is not null 
....................  */ 
.................... unsigned long strtoul(char *s,char *endptr, signed int base); 
....................  
.................... /* Standart template: float strtof(char * s,char *endptr) 
....................                       float48 strtof48(char *s,char *endptr); 
....................                       float64 strtod(char *s,char *endptr); 
....................  * converts the initial portion of the string s to a float32, float48 or float64, 
....................  * returns the converted value if any, 0 otherwise 
....................  * the final string is returned in the endptr, if endptr is not null                    
.................... */ 
.................... float strtof(char *s,char *endptr); 
.................... #if defined(__PCD__) 
.................... float48 strtof48(char *s,char *endptr); 
.................... float64 strtod(char *s,char *endptr); 
.................... #else 
.................... //provided for compatibility 
.................... #define strtof48(s, e) strtof(s, e) 
.................... #define strtod(s, e) strtof(s, e) 
.................... #endif 
....................  
.................... /* Standard template: float32 atof(char * s) 
....................  * converts the initial portion of the string s to a float. 
....................  * returns the converted value if any, 0 otherwise 
....................  */ 
.................... #define atof(s)   strtof(s, 0) 
....................  
.................... #if defined(__PCD__) 
.................... // The following functions only work on the 24 bit compiler 
.................... // for the 30F, 33F, 24F and 24H parts 
....................  
.................... /* Standard template: float48 atof48(char * s) 
....................  * converts the initial portion of the string s to a float. 
....................  * returns the converted value if any, 0 otherwise 
....................  */ 
.................... #define atof48(s) strtof48(s, 0) 
....................  
.................... /* Standard template: float64 atof64(char * s) 
....................  * converts the initial portion of the string s to a float. 
....................  * returns the converted value if any, 0 otherwise 
....................  */ 
.................... #define atof64(s) strtod(s, 0) 
.................... #endif 
....................  
.................... /* Standard template: float32 atoe(char * s) 
....................  * converts the initial portion of the string s to a float. 
....................  * returns the converted value if any, 0 otherwise 
....................  * also handles E format numbers 
....................  */ 
.................... #if !defined(__PCD__) 
.................... float atoe(char * s); 
.................... #endif 
....................  
.................... #if defined(__PCD__) 
.................... float32 atoe(char * s); 
.................... #endif 
....................  
.................... //--------------------------------------------------------------------------- 
.................... // Pseudo-random sequence generation functions 
.................... //--------------------------------------------------------------------------- 
....................  
.................... /* The rand function computes a sequence of pseudo-random integers in 
....................  * the range 0 to RAND_MAX 
....................  * 
....................  * Parameters: 
....................  *       (none) 
....................  * 
....................  * Returns: 
....................  *       The pseudo-random integer 
....................  */ 
.................... unsigned int16 rand(void); 
....................  
.................... /* The srand function uses the argument as a seed for a new sequence of 
....................  * pseudo-random numbers to be returned by subsequent calls to rand. 
....................  * 
....................  * Parameters: 
....................  *       [in] seed: The seed value to start from. You might need to pass 
....................  * 
....................  * Returns: 
....................  *       (none) 
....................  * 
....................  * Remarks 
....................  *          The srand function sets the starting point for generating 
....................  *       a series of pseudorandom integers. To reinitialize the 
....................  *       generator, use 1 as the seed argument. Any other value for 
....................  *       seed sets the generator to a random starting point. rand 
....................  *       retrieves the pseudorandom numbers that are generated. 
....................  *       Calling rand before any call to srand generates the same 
....................  *       sequence as calling srand with seed passed as 1. 
....................  *          Usually, you need to pass a time here from outer source 
....................  *       so that the numbers will be different every time you run. 
....................  */ 
.................... void srand(unsigned int32 seed); 
....................  
.................... //--------------------------------------------------------------------------- 
.................... // Memory management functions 
.................... //--------------------------------------------------------------------------- 
....................  
.................... // Comming soon 
....................  
.................... //--------------------------------------------------------------------------- 
.................... // Communication with the environment 
.................... //--------------------------------------------------------------------------- 
....................  
.................... /* The function returns 0 always 
....................  */ 
.................... signed int8 system(char *string); 
....................  
.................... //--------------------------------------------------------------------------- 
.................... // Searching and sorting utilities 
.................... //--------------------------------------------------------------------------- 
....................  
.................... /* Performs a binary search of a sorted array.. 
....................  * 
....................  * Parameters: 
....................  *       [in] key: Object to search for 
....................  *       [in] base: Pointer to base of search data 
....................  *       [in] num: Number of elements 
....................  *       [in] width: Width of elements 
....................  *       [in] compare: Function that compares two elements 
....................  * 
....................  * Returns: 
....................  *       bsearch returns a pointer to an occurrence of key in the array pointed 
....................  *       to by base. If key is not found, the function returns NULL. If the 
....................  *       array is not in order or contains duplicate records with identical keys, 
....................  *       the result is unpredictable. 
....................  */ 
.................... //void *bsearch(const void *key, const void *base, size_t num, size_t width, 
.................... //              int (*compare)(const void *, const void *)); 
....................  
.................... /* Performs the shell-metzner sort (not the quick sort algorithm). The contents 
....................  * of the array are sorted into ascending order according to a comparison 
....................  * function pointed to by compar. 
....................  * 
....................  * Parameters: 
....................  *       [in] base: Pointer to base of search data 
....................  *       [in] num: Number of elements 
....................  *       [in] width: Width of elements 
....................  *       [in] compare: Function that compares two elements 
....................  * 
....................  * Returns: 
....................  *       (none) 
....................  */ 
.................... //void *qsort(const void *base, size_t num, size_t width, 
.................... //              int (*compare)(const void *, const void *)); 
....................  
.................... //--------------------------------------------------------------------------- 
.................... // Integer arithmetic functions 
.................... //--------------------------------------------------------------------------- 
....................  
.................... #define labs abs 
....................  
.................... div_t div(signed int numer, signed int denom); 
.................... ldiv_t ldiv(signed long numer, signed long denom); 
....................  
.................... //--------------------------------------------------------------------------- 
.................... // Multibyte character functions 
.................... //--------------------------------------------------------------------------- 
....................  
.................... // Not supported 
....................  
.................... //--------------------------------------------------------------------------- 
.................... // Multibyte string functions 
.................... //--------------------------------------------------------------------------- 
....................  
.................... // Not supported 
....................  
....................  
.................... //--------------------------------------------------------------------------- 
.................... // Internal implementation 
.................... //--------------------------------------------------------------------------- 
....................  
.................... #include <stddef.h> 
.................... /////////////////////////////////////////////////////////////////////////// 
.................... ////        (C) Copyright 1996,2003 Custom Computer Services           //// 
.................... //// This source code may only be used by licensed users of the CCS C  //// 
.................... //// compiler.  This source code may only be distributed to other      //// 
.................... //// licensed users of the CCS C compiler.  No other use, reproduction //// 
.................... //// or distribution is permitted without written permission.          //// 
.................... //// Derivative programs created using this software in object code    //// 
.................... //// form are not restricted in any way.                               //// 
.................... /////////////////////////////////////////////////////////////////////////// 
....................  
.................... #ifndef _STDDEF 
....................  
.................... #define _STDDEF 
....................  
.................... #if sizeof(unsigned int8 *)==1 
.................... #define ptrdiff_t unsigned int8 
.................... #else 
.................... #define ptrdiff_t unsigned int16 
.................... #endif 
....................  
.................... #if defined(__PCB__) 
.................... #define size_t unsigned int8 
.................... #else 
.................... #define size_t unsigned int16 
.................... #endif 
.................... #define wchar_t char 
.................... #define NULL 0 
....................  
.................... #define offsetof(s,f) (offsetofbit(s,f)/8) 
....................  
.................... #endif 
....................  
.................... #include <string.h> 
.................... //////////////////////////////////////////////////////////////////////////// 
.................... ////        (C) Copyright 1996,2008 Custom Computer Services            //// 
.................... //// This source code may only be used by licensed users of the CCS C   //// 
.................... //// compiler.  This source code may only be distributed to other       //// 
.................... //// licensed users of the CCS C compiler.  No other use, reproduction  //// 
.................... //// or distribution is permitted without written permission.           //// 
.................... //// Derivative programs created using this software in object code     //// 
.................... //// form are not restricted in any way.                                //// 
.................... //////////////////////////////////////////////////////////////////////////// 
....................  
.................... #ifndef _STRING 
.................... #define _STRING 
.................... #include <stddef.h> 
.................... /////////////////////////////////////////////////////////////////////////// 
.................... ////        (C) Copyright 1996,2003 Custom Computer Services           //// 
.................... //// This source code may only be used by licensed users of the CCS C  //// 
.................... //// compiler.  This source code may only be distributed to other      //// 
.................... //// licensed users of the CCS C compiler.  No other use, reproduction //// 
.................... //// or distribution is permitted without written permission.          //// 
.................... //// Derivative programs created using this software in object code    //// 
.................... //// form are not restricted in any way.                               //// 
.................... /////////////////////////////////////////////////////////////////////////// 
....................  
.................... #ifndef _STDDEF 
....................  
.................... #define _STDDEF 
....................  
.................... #if sizeof(unsigned int8 *)==1 
.................... #define ptrdiff_t unsigned int8 
.................... #else 
.................... #define ptrdiff_t unsigned int16 
.................... #endif 
....................  
.................... #if defined(__PCB__) 
.................... #define size_t unsigned int8 
.................... #else 
.................... #define size_t unsigned int16 
.................... #endif 
.................... #define wchar_t char 
.................... #define NULL 0 
....................  
.................... #define offsetof(s,f) (offsetofbit(s,f)/8) 
....................  
.................... #endif 
....................  
.................... #include <ctype.h> 
.................... //////////////////////////////////////////////////////////////////////////// 
.................... ////        (C) Copyright 1996,2003 Custom Computer Services            //// 
.................... //// This source code may only be used by licensed users of the CCS C   //// 
.................... //// compiler.  This source code may only be distributed to other       //// 
.................... //// licensed users of the CCS C compiler.  No other use, reproduction  //// 
.................... //// or distribution is permitted without written permission.           //// 
.................... //// Derivative programs created using this software in object code     //// 
.................... //// form are not restricted in any way.                                //// 
.................... //////////////////////////////////////////////////////////////////////////// 
....................  
.................... #ifndef _CTYPE 
.................... #define _CTYPE 
....................  
.................... #define islower(x)  isamong(x,"abcdefghijklmnopqrstuvwxyz") 
.................... #define isupper(x)  isamong(x,"ABCDEFGHIJKLMNOPQRSTUVWXYZ") 
.................... #define isalnum(x)  isamong(x,"0123456789ABCDEFGHIJKLMNOPQRSTUVWXYZabcdefghijklmnopqrstuvwxyz") 
.................... #define isalpha(x)  isamong(x,"ABCDEFGHIJKLMNOPQRSTUVWXYZabcdefghijklmnopqrstuvwxyz") 
.................... #define isdigit(x)  isamong(x,"0123456789") 
.................... #define isspace(x)  ((x)==' ') 
.................... #define isxdigit(x) isamong(x,"0123456789ABCDEFabcdef") 
.................... #define iscntrl(x)  ((x)<' ') 
.................... #define isprint(x)  ((x)>=' ') 
.................... #define isgraph(x)  ((x)>' ') 
.................... #define ispunct(x)  (((x)>' ')&&!isalnum(x)) 
....................  
.................... #endif 
....................  
....................  
....................  
....................  
....................  
.................... ////////////////////////////////////////////// 
.................... //// Uncomment the following define to    //// 
.................... //// allow some functions to use a        //// 
.................... //// quicker algorithm, but use more ROM  //// 
.................... ////                                      //// 
.................... //// #define FASTER_BUT_MORE_ROM          //// 
.................... ////////////////////////////////////////////// 
....................  
....................  
....................  
.................... /*Copying functions*/ 
.................... /* standard template: 
....................    void *memmove(void *s1, void *s2, size_t n). 
....................    Copies max of n characters safely (not following ending '\0') 
....................    from s2 in s1; if s2 has less than n characters, appends 0 */ 
....................  
.................... char *memmove(void *s1,char *s2,size_t n) 
.................... { 
....................    char *sc1; 
....................    char *sc2; 
....................    sc1=s1; 
....................    sc2=s2; 
....................    if(sc2<sc1 && sc1 <sc2 +n) 
....................       for(sc1+=n,sc2+=n;0<n;--n) 
....................          *--sc1=*--sc2; 
....................    else 
....................       for(;0<n;--n) 
....................          *sc1++=*sc2++; 
....................   return s1; 
....................   } 
....................  
.................... /* Standard template: char *strcpy(char *s1, const char *s2) 
....................    copies the string s2 including the null character to s1. 
....................    This is a compiler built in to handle the different address 
....................    spaces */ 
....................  
.................... #define strcopy strcpy 
....................  
.................... /* standard template: 
....................    char *strncpy(char *s1, const char *s2, size_t n). 
....................    Copies max of n characters (not following ending '\0') 
....................    from s2 in s1; if s2 has less than n characters, appends 0 */ 
....................  
.................... char *strncpy(char *s1, char *s2, size_t n) 
.................... { 
....................   char *s; 
....................  
....................   for (s = s1; n > 0 && *s2 != '\0'; n--) 
....................      *s++ = *s2++; 
....................   for (; n > 0; n--) 
....................      *s++ = '\0'; 
....................  
....................   return(s1); 
.................... } 
.................... /***********************************************************/ 
....................  
.................... /*concatenation functions*/ 
.................... /* standard template: char *strcat(char *s1, const char *s2) 
.................... appends s2 to s1*/ 
....................  
.................... char *strcat(char *s1, char *s2) 
.................... { 
....................    char *s; 
....................  
....................    for (s = s1; *s != '\0'; ++s); 
....................    while(*s2 != '\0') 
....................    { 
....................       *s = *s2; 
....................       ++s; 
....................       ++s2; 
....................    } 
....................  
....................    *s = '\0'; 
....................    return(s1); 
.................... } 
.................... /* standard template: char *strncat(char *s1, char *s2,size_t n) 
.................... appends not more than n characters from s2 to s1*/ 
....................  
.................... char *strncat(char *s1, char *s2, size_t n) 
.................... { 
....................    char *s; 
....................  
....................    for (s = s1; *s != '\0'; ++s); 
....................    while(*s2 != '\0' && 0<n) 
....................    { 
....................       *s = *s2; 
....................       ++s; 
....................       ++s2; 
....................       --n; 
....................    } 
....................  
....................    *s = '\0'; 
....................    return(s1); 
.................... } 
....................  
.................... /***********************************************************/ 
....................  
....................  
.................... /*comparison functions*/ 
.................... /* standard template: signed int memcmp(void *s1, void *s2). 
....................    Compares s1 & s2; returns -1 if s1<s2, 0 if s1=s2, 1 if s1>s2 */ 
....................  
.................... signed int8 memcmp(void * s1,char *s2,size_t n) 
.................... { 
.................... char *su1, *su2; 
.................... for(su1=s1, su2=s2; 0<n; ++su1, ++su2, --n) 
.................... { 
....................    if(*su1!=*su2) 
....................       return ((*su1<*su2)?-1:+1); 
.................... } 
.................... return 0; 
.................... } 
....................  
.................... /* standard template: int strcmp(const char *s1, const char *s2). 
....................    Compares s1 & s2; returns -1 if s1<s2, 0 if s1=s2, 1 if s1>s2 */ 
....................  
.................... signed int8 strcmp(char *s1, char *s2) 
.................... { 
....................    for (; *s1 == *s2; s1++, s2++) 
....................       if (*s1 == '\0') 
....................          return(0); 
....................    return((*s1 < *s2) ? -1: 1); 
.................... } 
.................... /* standard template: int strcoll(const char *s1, const char *s2). 
....................    Compares s1 & s2; returns -1 if s1<s2, 0 if s1=s2, 1 if s1>s2 */ 
....................  
.................... signed int8 strcoll(char *s1, char *s2) 
.................... { 
....................    for (; *s1 == *s2; s1++, s2++) 
....................       if (*s1 == '\0') 
....................          return(0); 
....................    return((*s1 < *s2) ? -1: 1); 
.................... } 
....................  
.................... /* standard template: 
....................    int strncmp(const char *s1, const char *s2, size_t n). 
....................    Compares max of n characters (not following 0) from s1 to s2; 
....................    returns same as strcmp */ 
....................  
.................... signed int8 strncmp(char *s1, char *s2, size_t n) 
.................... { 
....................    for (; n > 0; s1++, s2++, n--) 
....................       if (*s1 != *s2) 
....................          return((*s1 <*s2) ? -1: 1); 
....................       else if (*s1 == '\0') 
....................          return(0); 
....................    return(0); 
.................... } 
.................... /* standard template: 
....................    int strxfrm(const char *s1, const char *s2, size_t n). 
....................    transforms maximum of n characters from s2 and places them into s1*/ 
.................... size_t strxfrm(char *s1, char *s2, size_t n) 
.................... { 
....................   char *s; 
....................   unsigned int8 n1; 
....................   n1=n; 
....................   for (s = s1; n > 0 && *s2 != '\0'; n--) 
....................      *s++ = *s2++; 
....................   for (; n > 0; n--) 
....................      *s++ = '\0'; 
....................  
....................   return(n1); 
.................... } 
....................  
....................  
....................  
....................  
....................  
.................... /***********************************************************/ 
.................... /*Search functions*/ 
.................... /* standard template: void *memchr(const char *s, int c). 
....................    Finds first occurrence of c in n characters of s */ 
....................  
.................... char *memchr(void *s,unsigned int8 c,size_t n) 
.................... { 
....................    char uc; 
....................    char *su; 
....................    uc=c; 
....................    for(su=s;0<n;++su,--n) 
....................       if(*su==uc) 
....................       return su; 
....................    return NULL; 
.................... } 
....................  
.................... /* standard template: char *strchr(const char *s, int c). 
....................    Finds first occurrence of c in s */ 
....................  
.................... char *strchr(char *s, unsigned int8 c) 
.................... { 
....................    for (; *s != c; s++) 
....................       if (*s == '\0') 
....................          return(0); 
....................    return(s); 
.................... } 
.................... /* standard template: 
....................    size_t strcspn(const char *s1, const char *s2). 
....................    Computes length of max initial segment of s1 that 
....................    consists entirely of characters NOT from s2*/ 
....................  
.................... unsigned int8  strcspn(char *s1, char *s2) 
.................... { 
....................    char *sc1, *sc2; 
....................  
....................    for (sc1 = s1; *sc1 != 0; sc1++) 
....................       for (sc2 = s2; *sc2 != 0; sc2++) 
....................          if (*sc1 == *sc2) 
....................             return(sc1 - s1); 
....................    return(sc1 - s1); 
.................... } 
.................... /* standard template: 
....................    char *strpbrk(const char *s1, const char *s2). 
....................    Locates first occurence of any character from s2 in s1; 
....................    returns s1 if s2 is empty string */ 
....................  
.................... char *strpbrk(char *s1, char *s2) 
.................... { 
....................    char *sc1, *sc2; 
....................  
....................    for (sc1 = s1; *sc1 != 0; sc1++) 
....................       for (sc2 = s2; *sc2 != 0; sc2++) 
....................          if (*sc1 == *sc2) 
....................             return(sc1); 
....................    return(0); 
.................... } 
....................  
....................  
.................... /* standard template: char *strrchr(const char *s, int c). 
....................    Finds last occurrence of c in s */ 
....................  
.................... char *strrchr(char *s, unsigned int8 c) 
.................... { 
....................    char *p; 
....................  
....................    for (p = 0; ; s++) 
....................    { 
....................       if (*s == c) 
....................          p = s; 
....................       if (*s == '\0') 
....................          return(p); 
....................    } 
.................... } 
.................... /* computes length of max initial segment of s1 consisting 
....................    entirely of characters from s2 */ 
....................  
.................... unsigned int8  strspn(char *s1, char *s2) 
.................... { 
....................    char *sc1, *sc2; 
....................  
....................    for (sc1 = s1; *sc1 != 0; sc1++) 
....................       for (sc2 = s2; ; sc2++) 
....................     if (*sc2 == '\0') 
....................        return(sc1 - s1); 
....................          else if (*sc1 == *sc2) 
....................             break; 
....................    return(sc1 - s1); 
.................... } 
.................... /* standard template: 
....................    char *strstr(const char *s1, const char *s2); 
....................    Locates first occurence of character sequence s2 in s1; 
....................    returns 0 if s2 is empty string 
....................  
....................    Uncomment #define FASTER_BUT_MORE_ROM at the top of the 
....................    file to use the faster algorithm */ 
.................... char *strstr(char *s1, char *s2) 
.................... { 
....................    char *s, *t; 
....................  
....................    #ifdef FASTER_BUT_MORE_ROM 
....................    if (*s2 == '\0') 
....................          return(s1); 
....................    #endif 
....................  
....................    while (*s1) 
....................    { 
....................       for(s = s1, t = s2; *t && (*s == *t); ++s, ++t); 
....................  
....................       if (*t == '\0') 
....................          return s1; 
....................       ++s1; 
....................       #ifdef FASTER_BUT_MORE_ROM 
....................          while(*s1 != '\0' && *s1 != *s2) 
....................             ++s1; 
....................       #endif 
....................    } 
....................    return 0; 
.................... } 
....................  
.................... /* standard template: char *strtok(char *s1, const char *s2). 
....................  
....................    Finds next token in s1 delimited by a character from separator 
....................    string s2 (which can be different from call to call).  First call 
....................    starts at beginning of s1 searching for first character NOT 
....................    contained in s2; returns 0 if none is found. 
....................    If one is found, it is the start of first token (return value). 
....................    Function then searches from there for a character contained in s2. 
....................    If none is found, current token extends to end of s1, and subsequent 
....................    searches for a token will return 0.  If one is found, it is 
....................    overwritten by '\0', which terminates current token.  Function saves 
....................    pointer to following character from which next search will start. 
....................    Each subsequent call, with 0 as first argument, starts searching 
....................    from saved pointer */ 
....................  
.................... char *strtok(char *s1, char *s2) 
.................... { 
....................    char *beg, *end; 
....................    static char *save; 
....................  
....................    beg = (s1)? s1: save; 
....................    beg += strspn(beg, s2); 
....................    if (*beg == '\0') 
....................    { 
....................       *save = ' '; 
....................       return(0); 
....................    } 
....................    end = strpbrk(beg, s2); 
....................    if (*end != '\0') 
....................    { 
....................       *end = '\0'; 
....................       end++; 
....................    } 
....................    save = end; 
....................    return(beg); 
.................... } 
....................  
.................... /*****************************************************************/ 
.................... /*Miscellaneous functions*/ 
.................... /* standard template 
.................... maps error number in errnum to an error message string 
.................... Returns: Pointer to string 
.................... */ 
.................... #ifdef _ERRNO 
.................... char * strerror(unsigned int8 errnum) 
.................... { 
.................... static char s[13]; 
.................... switch( errnum) 
.................... { 
.................... case 0: 
....................    strcpy(s,"no errors"); 
....................    return s; 
.................... case EDOM : 
....................    strcpy(s,"domain error"); 
....................    return s; 
.................... case ERANGE: 
....................    strcpy(s,"range error"); 
....................    return s; 
.................... } 
.................... } 
.................... #ENDIF 
.................... /* standard template: size_t strlen(const char *s). 
....................    Computes length of s1 (preceding terminating 0) */ 
....................  
.................... unsigned int8 strlen(char *s) 
.................... { 
....................    char *sc; 
....................  
....................    for (sc = s; *sc != 0; sc++); 
....................    return(sc - s); 
.................... } 
....................  
.................... /* standard template: size_t stricmp(const char *s1, const char *s2). 
....................    Compares s1 to s2 ignoring case (upper vs. lower) */ 
....................  
.................... signed int8 stricmp(char *s1, char *s2) 
.................... { 
....................  for(; *s1==*s2||(isalpha(*s1)&&isalpha(*s2)&&(*s1==*s2+32||*s2==*s1+32)); 
....................     s1++, s2++) 
....................     if (*s1 == '\0') 
....................        return(0); 
....................  return((*s1 < *s2) ? -1: 1); 
.................... } 
....................  
....................  
.................... /* standard template: char *strlwr(char *s). 
....................    Replaces uppercase letters by lowercase; 
....................    returns pointer to new string s */ 
....................  
.................... char *strlwr(char *s) 
.................... { 
....................    char *p; 
....................  
....................    for (p = s; *p != '\0'; p++) 
....................       if (*p >= 'A' && *p <='Z') 
....................          *p += 'a' - 'A'; 
....................    return(s); 
.................... } 
....................  
.................... /* standard template: char *strupr(char *s). 
....................    Replaces lowercase letters by upercase; 
....................    returns pointer to new string s */ 
....................  
.................... char *strupr(char *s) 
.................... { 
....................    char *p; 
....................  
....................    for (p = s; *p != '\0'; p++) 
....................       if (*p >= 'a' && *p <='z') 
....................          *p -= 'a' - 'A'; 
....................    return(s); 
.................... } 
....................  
....................  
.................... /************************************************************/ 
....................  
....................  
.................... #endif 
....................  
....................  
.................... div_t div(signed int numer, signed int denom) 
.................... { 
....................    div_t val; 
....................    val.quot = numer / denom; 
....................    val.rem = numer - (denom * val.quot); 
....................    return (val); 
.................... } 
....................  
.................... ldiv_t ldiv(signed long numer, signed long denom) 
.................... { 
....................    ldiv_t val; 
....................  
....................    val.quot = numer / denom; 
....................    val.rem = numer - (denom * val.quot); 
....................    return (val); 
.................... } 
....................  
.................... #if defined(__PCD__) 
.................... float32 atoe(char * s) 
.................... { 
....................    float32 pow10 = 1.0; 
....................    float32 result = 0.0; 
....................    unsigned int8 sign = 0; 
....................    unsigned int8 expsign = 0; 
....................    char c; 
....................    unsigned int8 ptr = 0; 
....................    unsigned int8 i; 
....................    float32 exp = 1.0; 
....................    unsigned int8 expcnt = 0; 
....................  
....................    c = s[ptr++]; 
....................  
....................    if ((c>='0' && c<='9') || c=='+' || c=='-' || c=='.' || c=='E' || c=='e') { 
....................       if(c == '-') { 
....................          sign = 1; 
....................          c = s[ptr++]; 
....................       } 
....................       if(c == '+') 
....................          c = s[ptr++]; 
....................  
....................       while((c >= '0' && c <= '9')) { 
....................          result = 10*result + c - '0'; 
....................          c = s[ptr++]; 
....................       } 
....................  
....................       if (c == '.') { 
....................          c = s[ptr++]; 
....................          while((c >= '0' && c <= '9')) { 
....................              pow10 = pow10*10; 
....................              result += (c - '0')/pow10; 
....................              c = s[ptr++]; 
....................          } 
....................       } 
....................  
....................       // Handling the exponent 
....................       if (c=='e' || c=='E') { 
....................          c = s[ptr++]; 
....................  
....................          if(c == '-') { 
....................             expsign = 1; 
....................             c = s[ptr++]; 
....................          } 
....................          if(c == '+') 
....................             c = s[ptr++]; 
....................  
....................          while((c >= '0' && c <= '9')) { 
....................             expcnt = 10*expcnt + c - '0'; 
....................             c = s[ptr++]; 
....................          } 
....................  
....................          for(i=0;i<expcnt;i++) 
....................             exp*=10; 
....................  
....................          if(expsign==1) 
....................             result/=exp; 
....................          else 
....................             result*=exp; 
....................       } 
....................    } 
....................  
....................    if (sign == 1) 
....................       result = -1*result; 
....................    return(result); 
.................... } 
.................... #endif 
....................  
.................... #if !defined(__PCD__) 
.................... float atoe(char * s) 
.................... { 
....................    float pow10 = 1.0; 
....................    float result = 0.0; 
....................    unsigned int8 sign = 0; 
....................    unsigned int8 expsign = 0; 
....................    char c; 
....................    unsigned int8 ptr = 0; 
....................    unsigned int8 i; 
....................    float exp = 1.0; 
....................    unsigned int8 expcnt = 0; 
....................  
....................    c = s[ptr++]; 
....................  
....................    if ((c>='0' && c<='9') || c=='+' || c=='-' || c=='.' || c=='E' || c=='e') { 
....................       if(c == '-') { 
....................          sign = 1; 
....................          c = s[ptr++]; 
....................       } 
....................       if(c == '+') 
....................          c = s[ptr++]; 
....................  
....................       while((c >= '0' && c <= '9')) { 
....................          result = 10*result + c - '0'; 
....................          c = s[ptr++]; 
....................       } 
....................  
....................       if (c == '.') { 
....................          c = s[ptr++]; 
....................          while((c >= '0' && c <= '9')) { 
....................              pow10 = pow10*10; 
....................              result += (c - '0')/pow10; 
....................              c = s[ptr++]; 
....................          } 
....................       } 
....................  
....................       // Handling the exponent 
....................       if (c=='e' || c=='E') { 
....................          c = s[ptr++]; 
....................  
....................          if(c == '-') { 
....................             expsign = 1; 
....................             c = s[ptr++]; 
....................          } 
....................          if(c == '+') 
....................             c = s[ptr++]; 
....................  
....................          while((c >= '0' && c <= '9')) { 
....................             expcnt = 10*expcnt + c - '0'; 
....................             c = s[ptr++]; 
....................          } 
....................  
....................          for(i=0;i<expcnt;i++) 
....................             exp*=10; 
....................  
....................          if(expsign==1) 
....................             result/=exp; 
....................          else 
....................             result*=exp; 
....................       } 
....................    } 
....................  
....................    if (sign == 1) 
....................       result = -1*result; 
....................    return(result); 
.................... } 
.................... #endif 
....................  
.................... signed int atoi(char *s) 
.................... { 
....................    signed int result; 
....................    unsigned int sign, base, index; 
....................    char c; 
....................  
....................    index = 0; 
....................    sign = 0; 
....................    base = 10; 
....................    result = 0; 
....................  
....................    if (!s) 
....................       return 0; 
....................    // Omit all preceeding alpha characters 
....................    c = s[index++]; 
....................  
....................    // increase index if either positive or negative sign is detected 
....................    if (c == '-') 
....................    { 
....................       sign = 1;         // Set the sign to negative 
....................       c = s[index++]; 
....................    } 
....................    else if (c == '+') 
....................    { 
....................       c = s[index++]; 
....................    } 
....................  
....................    if (c >= '0' && c <= '9') 
....................    { 
....................  
....................       // Check for hexa number 
....................       if (c == '0' && (s[index] == 'x' || s[index] == 'X')) 
....................       { 
....................          base = 16; 
....................          index++; 
....................          c = s[index++]; 
....................       } 
....................  
....................       // The number is a decimal number 
....................       if (base == 10) 
....................       { 
....................          while (c >= '0' && c <= '9') 
....................          { 
....................             result = 10*result + (c - '0'); 
....................             c = s[index++]; 
....................          } 
....................       } 
....................       else if (base == 16)    // The number is a hexa number 
....................       { 
....................          c = toupper(c); 
....................          while ( (c >= '0' && c <= '9') || (c >= 'A' && c<='F')) 
....................          { 
....................             if (c >= '0' && c <= '9') 
....................                result = (result << 4) + (c - '0'); 
....................             else 
....................                result = (result << 4) + (c - 'A' + 10); 
....................  
....................             c = s[index++]; 
....................             c = toupper(c); 
....................          } 
....................       } 
....................    } 
....................  
....................    if (sign == 1 && base == 10) 
....................        result = -result; 
....................  
....................    return(result); 
.................... } 
....................  
.................... signed long atol(char *s) 
.................... { 
....................    signed long result; 
....................    unsigned int sign, base, index; 
....................    char c; 
....................  
....................    index = 0; 
....................    sign = 0; 
....................    base = 10; 
....................    result = 0; 
....................  
....................    if (!s) 
....................       return 0; 
....................    c = s[index++]; 
....................  
....................    // increase index if either positive or negative sign is detected 
....................    if (c == '-') 
....................    { 
....................       sign = 1;         // Set the sign to negative 
....................       c = s[index++]; 
....................    } 
....................    else if (c == '+') 
....................    { 
....................       c = s[index++]; 
....................    } 
....................  
....................    if (c >= '0' && c <= '9') 
....................    { 
....................       if (c == '0' && (s[index] == 'x' || s[index] == 'X')) 
....................       { 
....................          base = 16; 
....................          index++; 
....................          c = s[index++]; 
....................       } 
....................  
....................       // The number is a decimal number 
....................       if (base == 10) 
....................       { 
....................          while (c >= '0' && c <= '9') 
....................          { 
....................             result = 10*result + (c - '0'); 
....................             c = s[index++]; 
....................          } 
....................       } 
....................       else if (base == 16)    // The number is a hexa number 
....................       { 
....................          c = toupper(c); 
....................          while ( (c >= '0' && c <= '9') || (c >= 'A' && c <='F')) 
....................          { 
....................             if (c >= '0' && c <= '9') 
....................                result = (result << 4) + (c - '0'); 
....................             else 
....................                result = (result << 4) + (c - 'A' + 10); 
....................  
....................             c = s[index++];c = toupper(c); 
....................          } 
....................       } 
....................    } 
....................  
....................    if (base == 10 && sign == 1) 
....................       result = -result; 
....................  
....................    return(result); 
.................... } 
....................  
.................... /* A fast routine to multiply by 10 
....................  */ 
.................... signed int32 mult_with10(int32 num) 
.................... { 
....................    return ( (num << 1) + (num << 3) ); 
.................... } 
....................  
.................... #if sizeof(long)==2 
.................... signed int32 atoi32(char *s) 
.................... { 
....................    signed int32 result; 
....................    int8 sign, base, index; 
....................    char c; 
....................  
....................    index = 0; 
....................    sign = 0; 
....................    base = 10; 
....................    result = 0; 
....................  
....................    if (!s) 
....................       return 0; 
....................    c = s[index++]; 
....................  
....................    // increase index if either positive or negative sign is detected 
....................    if (c == '-') 
....................    { 
....................       sign = 1;         // Set the sign to negative 
....................       c = s[index++]; 
....................    } 
....................    else if (c == '+') 
....................    { 
....................       c = s[index++]; 
....................    } 
....................  
....................    if (c >= '0' && c <= '9') 
....................    { 
....................       if (c == '0' && (s[index] == 'x' || s[index] == 'X')) 
....................       { 
....................          base = 16; 
....................          index++; 
....................          c = s[index++]; 
....................       } 
....................  
....................       // The number is a decimal number 
....................       if (base == 10) 
....................       { 
....................          while (c >= '0' && c <= '9') { 
....................             result = (result << 1) + (result << 3);  // result *= 10; 
....................             result += (c - '0'); 
....................             c = s[index++]; 
....................          } 
....................       } 
....................       else if (base == 16)    // The number is a hexa number 
....................       { 
....................          c = toupper(c); 
....................          while ((c >= '0' && c <= '9') || (c >= 'A' && c <='F')) 
....................          { 
....................             if (c >= '0' && c <= '9') 
....................                result = (result << 4) + (c - '0'); 
....................             else 
....................                result = (result << 4) + (c - 'A' + 10); 
....................  
....................             c = s[index++];c = toupper(c); 
....................          } 
....................       } 
....................    } 
....................  
....................    if (base == 10 && sign == 1) 
....................       result = -result; 
....................  
....................    return(result); 
.................... } 
.................... #endif 
....................  
.................... #if defined(__PCD__) 
....................  
.................... signed int48 atoi48(char *s) 
.................... { 
....................    signed int48 result; 
....................    int8 sign, base, index; 
....................    char c; 
....................  
....................    index = 0; 
....................    sign = 0; 
....................    base = 10; 
....................    result = 0; 
....................  
....................    if (!s) 
....................       return 0; 
....................    c = s[index++]; 
....................  
....................    // increase index if either positive or negative sign is detected 
....................    if (c == '-') 
....................    { 
....................       sign = 1;         // Set the sign to negative 
....................       c = s[index++]; 
....................    } 
....................    else if (c == '+') 
....................    { 
....................       c = s[index++]; 
....................    } 
....................  
....................    if (c >= '0' && c <= '9') 
....................    { 
....................       if (c == '0' && (s[index] == 'x' || s[index] == 'X')) 
....................       { 
....................          base = 16; 
....................          index++; 
....................          c = s[index++]; 
....................       } 
....................  
....................       // The number is a decimal number 
....................       if (base == 10) 
....................       { 
....................          while (c >= '0' && c <= '9') { 
....................             result = (result << 1) + (result << 3);  // result *= 10; 
....................             result += (c - '0'); 
....................             c = s[index++]; 
....................          } 
....................       } 
....................       else if (base == 16)    // The number is a hexa number 
....................       { 
....................          c = toupper(c); 
....................          while ((c >= '0' && c <= '9') || (c >= 'A' && c <='F')) 
....................          { 
....................             if (c >= '0' && c <= '9') 
....................                result = (result << 4) + (c - '0'); 
....................             else 
....................                result = (result << 4) + (c - 'A' + 10); 
....................  
....................             c = s[index++];c = toupper(c); 
....................          } 
....................       } 
....................    } 
....................  
....................    if (base == 10 && sign == 1) 
....................       result = -result; 
....................  
....................    return(result); 
.................... } 
....................  
.................... signed int64 atoi64(char *s) 
.................... { 
....................    signed int64 result; 
....................    int8 sign, base, index; 
....................    char c; 
....................  
....................    index = 0; 
....................    sign = 0; 
....................    base = 10; 
....................    result = 0; 
....................  
....................    if (!s) 
....................       return 0; 
....................    c = s[index++]; 
....................  
....................    // increase index if either positive or negative sign is detected 
....................    if (c == '-') 
....................    { 
....................       sign = 1;         // Set the sign to negative 
....................       c = s[index++]; 
....................    } 
....................    else if (c == '+') 
....................    { 
....................       c = s[index++]; 
....................    } 
....................  
....................    if (c >= '0' && c <= '9') 
....................    { 
....................       if (c == '0' && (s[index] == 'x' || s[index] == 'X')) 
....................       { 
....................          base = 16; 
....................          index++; 
....................          c = s[index++]; 
....................       } 
....................  
....................       // The number is a decimal number 
....................       if (base == 10) 
....................       { 
....................          while (c >= '0' && c <= '9') { 
....................             result = (result << 1) + (result << 3);  // result *= 10; 
....................             result += (c - '0'); 
....................             c = s[index++]; 
....................          } 
....................       } 
....................       else if (base == 16)    // The number is a hexa number 
....................       { 
....................          c = toupper(c); 
....................          while ((c >= '0' && c <= '9') || (c >= 'A' && c <='F')) 
....................          { 
....................             if (c >= '0' && c <= '9') 
....................                result = (result << 4) + (c - '0'); 
....................             else 
....................                result = (result << 4) + (c - 'A' + 10); 
....................  
....................             c = s[index++];c = toupper(c); 
....................          } 
....................       } 
....................    } 
....................  
....................    if (base == 10 && sign == 1) 
....................       result = -result; 
....................  
....................    return(result); 
.................... } 
.................... #endif 
....................  
.................... char * itoa(signed int32 num, unsigned int base, char * s) 
.................... { 
....................      unsigned int32 temp=1; 
....................      unsigned int8 i,sign=0,cnt=0; 
....................      char c; 
....................  
....................      if(num<0) { 
....................          sign=1;        // Check for negative number 
....................          num*=-1; 
....................      } 
....................  
....................      while(temp>0) { 
....................          temp=(num/base); 
....................          s[cnt]=(num%base)+'0';    // Conversion 
....................  
....................          if(s[cnt]>0x39) 
....................             s[cnt]+=0x7; 
....................  
....................          cnt++; 
....................          num=temp; 
....................      } 
....................  
....................      if(sign==1) { 
....................          s[cnt]=0x2D;      // Negative sign 
....................          cnt++; 
....................      } 
....................  
....................      for(i = 0;i<(int8)(cnt/2);i++) { 
....................  
....................          c=s[i]; 
....................          s[i]=s[cnt-i-1];        // Reverse the number 
....................          s[cnt-i-1]=c; 
....................      } 
....................      s[cnt]='\0';     // End the string 
....................      return s; 
.................... } 
....................  
.................... #if defined(__PCD__) 
....................  
.................... char * itoa(signed int48 num, unsigned int base, char * s) 
.................... { 
....................      unsigned int48 temp=1; 
....................      unsigned int8 i,sign=0,cnt=0; 
....................      char c; 
....................  
....................      if(num<0) { 
....................          sign=1;        // Check for negative number 
....................          num*=-1; 
....................      } 
....................  
....................      while(temp>0) { 
....................          temp=(num/base); 
....................          s[cnt]=(num%base)+'0';    // Conversion 
....................  
....................          if(s[cnt]>0x39) 
....................             s[cnt]+=0x7; 
....................  
....................          cnt++; 
....................          num=temp; 
....................      } 
....................  
....................      if(sign==1) { 
....................          s[cnt]=0x2D;      // Negative sign 
....................          cnt++; 
....................      } 
....................  
....................      for(i = 0;i<(int8)(cnt/2);i++) { 
....................  
....................          c=s[i]; 
....................          s[i]=s[cnt-i-1];        // Reverse the number 
....................          s[cnt-i-1]=c; 
....................      } 
....................      s[cnt]='\0';     // End the string 
....................      return s; 
.................... } 
....................  
.................... char * itoa(signed int64 num, unsigned int base, char * s) 
.................... { 
....................      unsigned int64 temp=1; 
....................      unsigned int8 i,sign=0,cnt=0; 
....................      char c; 
....................       
....................      if(num<0) { 
....................          sign=1;        // Check for negative number 
....................          num*=-1;         
....................      } 
....................  
....................      while(temp>0) { 
....................          temp=(num/base); 
....................          s[cnt]=(num%base)+'0';    // Conversion 
....................  
....................          if(s[cnt]>0x39) 
....................             s[cnt]+=0x7; 
....................              
....................          cnt++; 
....................          num=temp; 
....................      } 
....................  
....................      if(sign==1) { 
....................          s[cnt]=0x2D;      // Negative sign 
....................          cnt++; 
....................      } 
....................  
....................      for(i = 0;i<(int8)(cnt/2);i++) { 
....................  
....................          c=s[i]; 
....................          s[i]=s[cnt-i-1];        // Reverse the number 
....................          s[cnt-i-1]=c; 
....................      } 
....................      s[cnt]='\0';     // End the string 
....................      return s; 
.................... } 
....................  
.................... #endif 
....................  
.................... float strtof(char *s, char *endptr) 
.................... { 
....................    float pow10 = 1.0; 
....................    float result = 0.0; 
....................    int1 skip = 1, sign = 0, point = 0; 
....................    char c; 
....................    unsigned int8 ptr = 0; 
....................  
....................    if (!s) 
....................       return 0; 
....................  
....................    for(c=s[ptr++]; c!=0; c=s[ptr++]) 
....................    { 
....................       if (skip && !isspace(c)) 
....................       { 
....................          skip = 0; 
....................          if (c == '+') 
....................          { 
....................             sign = 0; 
....................             continue; 
....................          }             
....................          else if (c == '-') 
....................          { 
....................             sign = 1; 
....................             continue; 
....................          } 
....................       } 
....................       if (!skip && (c == '.') && !point) 
....................          point = 1; 
....................       else if (!skip && isdigit(c)) 
....................       { 
....................          c -= '0'; 
....................          if (point) 
....................          { 
....................             pow10 = pow10 * 10.0; 
....................             result += (float)c / pow10;    
....................          } 
....................          else 
....................          { 
....................             result = 10.0 * result + (float)c; 
....................          } 
....................       } 
....................       else if (!skip) 
....................          break; 
....................    } 
....................  
....................    if (sign) 
....................       result = -1*result; 
....................        
....................    if(endptr) 
....................    { 
....................       if (ptr) { 
....................          ptr--; 
....................        #IF LONG_POINTERS  
....................          *((int16 *)endptr)= s+ptr;  
....................        #ELSE 
....................          *((char *)endptr)=s+ptr; 
....................        #ENDIF 
....................       } 
....................       else 
....................       { 
....................       #IF LONG_POINTERS 
....................       *((int16 *)endptr)= s;  
....................       #ELSE 
....................       *((char *)endptr)=s; 
....................       #ENDIF 
....................       } 
....................    } 
....................  
....................    return(result); 
.................... } 
....................  
.................... #if defined(__PCD__) 
.................... float48 strtof48(char *s, char *endptr) 
.................... { 
....................    float48 pow10 = 1.0; 
....................    float48 result = 0.0; 
....................    int1 skip = 1, sign = 0, point = 0; 
....................    char c; 
....................    unsigned int8 ptr = 0; 
....................  
....................    if (!s) 
....................       return 0; 
....................  
....................    for(c=s[ptr++]; c!=0; c=s[ptr++]) 
....................    { 
....................       if (skip && !isspace(c)) 
....................       { 
....................          skip = 0; 
....................          if (c == '+') 
....................          { 
....................             sign = 0; 
....................             continue; 
....................          }             
....................          else if (c == '-') 
....................          { 
....................             sign = 1; 
....................             continue; 
....................          } 
....................       } 
....................       if (!skip && (c == '.') && !point) 
....................          point = 1; 
....................       else if (!skip && isdigit(c)) 
....................       { 
....................          c -= '0'; 
....................          if (point) 
....................          { 
....................             pow10 = pow10 * 10.0; 
....................             result += (float48)c / pow10;    
....................          } 
....................          else 
....................          { 
....................             result = 10.0 * result + (float48)c; 
....................          } 
....................       } 
....................       else if (!skip) 
....................          break; 
....................    } 
....................  
....................    if (sign) 
....................       result = -1*result; 
....................        
....................    if(endptr) 
....................    { 
....................       if (ptr) { 
....................          ptr--; 
....................        #IF LONG_POINTERS  
....................          *((int16 *)endptr)= s+ptr;  
....................        #ELSE 
....................          *((char *)endptr)=s+ptr; 
....................        #ENDIF 
....................       } 
....................       else 
....................       { 
....................       #IF LONG_POINTERS 
....................       *((int16 *)endptr)= s;  
....................       #ELSE 
....................       *((char *)endptr)=s; 
....................       #ENDIF 
....................       } 
....................    } 
....................  
....................    return(result); 
.................... } 
....................  
.................... float64 strtod(char *s, char *endptr) 
.................... { 
....................    float64 pow10 = 1.0; 
....................    float64 result = 0.0; 
....................    int1 skip = 1, sign = 0, point = 0; 
....................    char c; 
....................    unsigned int8 ptr = 0; 
....................  
....................    if (!s) 
....................       return 0; 
....................  
....................    for(c=s[ptr++]; c!=0; c=s[ptr++]) 
....................    { 
....................       if (skip && !isspace(c)) 
....................       { 
....................          skip = 0; 
....................          if (c == '+') 
....................          { 
....................             sign = 0; 
....................             continue; 
....................          }             
....................          else if (c == '-') 
....................          { 
....................             sign = 1; 
....................             continue; 
....................          } 
....................       } 
....................       if (!skip && (c == '.') && !point) 
....................          point = 1; 
....................       else if (!skip && isdigit(c)) 
....................       { 
....................          c -= '0'; 
....................          if (point) 
....................          { 
....................             pow10 = pow10 * 10.0; 
....................             result += (float64)c / pow10;    
....................          } 
....................          else 
....................          { 
....................             result = 10.0 * result + (float64)c; 
....................          } 
....................       } 
....................       else if (!skip) 
....................          break; 
....................    } 
....................  
....................    if (sign) 
....................       result = -1*result; 
....................        
....................    if(endptr) 
....................    { 
....................       if (ptr) { 
....................          ptr--; 
....................        #IF LONG_POINTERS  
....................          *((int16 *)endptr)= s+ptr;  
....................        #ELSE 
....................          *((char *)endptr)=s+ptr; 
....................        #ENDIF 
....................       } 
....................       else 
....................       { 
....................       #IF LONG_POINTERS 
....................       *((int16 *)endptr)= s;  
....................       #ELSE 
....................       *((char *)endptr)=s; 
....................       #ENDIF 
....................       } 
....................    } 
....................  
....................    return(result); 
.................... } 
.................... #endif 
....................  
.................... unsigned long strtoul(char *s, char *endptr, signed int base) 
.................... { 
....................    char *sc,*s1,*sd; 
....................    unsigned long x=0; 
....................    char sign; 
....................    char digits[]="0123456789abcdefghijklmnopqstuvwxyz"; 
....................    for(sc=s;isspace(*sc);++sc); 
....................    sign=*sc=='-'||*sc=='+'?*sc++:'+'; 
....................    if(sign=='-' || base <0 || base ==1|| base >36) // invalid base 
....................    goto StrtoulGO; 
....................  
....................    else if (base) 
....................    { 
....................       if(base==16 && *sc =='0'&&(sc[1]=='x' || sc[1]=='X')) 
....................          sc+=2; 
....................       if(base==8 && *sc =='0') 
....................          sc+=1; 
....................       if(base==2 && *sc =='0'&&sc[1]=='b') 
....................          sc+=2; 
....................  
....................    } 
....................    else if(*sc!='0') // base is 0, find base 
....................       base=10; 
....................    else if (sc[1]=='x' || sc[1]=='X') 
....................       base =16,sc+=2; 
....................    else if(sc[1]=='b') 
....................       base=2,sc+=2; 
....................    else 
....................       base=8; 
....................    for (s1=sc;*sc=='0';++sc);// skip leading zeroes 
....................    sd=memchr(digits,tolower(*sc),base); 
....................    for(; sd!=0; ) 
....................    { 
....................       x=x*base+(int16)(sd-digits); 
....................       ++sc; 
....................       sd=memchr(digits,tolower(*sc),base); 
....................    } 
....................    if(s1==sc) 
....................    { 
....................    StrtoulGO: 
....................       if (endptr) 
....................       { 
....................          #IF LONG_POINTERS 
....................          *((int16 *)endptr)= s;  
....................          #ELSE 
....................          *((char *)endptr)=s; 
....................          #ENDIF 
....................          } 
....................    return 0; 
....................    } 
....................    if (endptr) 
....................    { 
....................          #IF LONG_POINTERS 
....................          *((int16 *)endptr)= sc;  
....................          #ELSE 
....................          *((char *)endptr)=sc;  
....................          #ENDIF 
....................    } 
....................    return x; 
.................... } 
....................  
....................  
.................... signed long strtol(char *s,char *endptr, signed int base) 
.................... { 
....................    char *sc,*s1,*sd; 
....................    signed long x=0; 
....................    char sign; 
....................    char digits[]="0123456789abcdefghijklmnopqstuvwxyz"; 
....................    for(sc=s;isspace(*sc);++sc); 
....................    sign=*sc=='-'||*sc=='+'?*sc++:'+'; 
....................    if (base <0 || base ==1|| base >36) // invalid base 
....................    goto StrtolGO; 
....................    else if (base) 
....................    { 
....................       if(base==16 && *sc =='0'&&(sc[1]=='x' || sc[1]=='X')) 
....................          sc+=2; 
....................       if(base==8 && *sc =='0') 
....................          sc+=1; 
....................       if(base==2 && *sc =='0'&&sc[1]=='b') 
....................          sc+=2; 
....................  
....................    } 
....................    else if(*sc!='0') // base is 0, find base 
....................       base=10; 
....................    else if (sc[1]=='x' || sc[1]=='X') 
....................       base =16,sc+=2; 
....................    else if(sc[1]=='b') 
....................       base=2,sc+=2; 
....................    else 
....................       base=8; 
....................    for (s1=sc;*sc=='0';++sc);// skip leading zeroes 
....................  
....................    sd=memchr(digits,tolower(*sc),base); 
....................    for(;sd!=0;) 
....................    { 
....................       x=x*base+(int16)(sd-digits); 
....................       ++sc; 
....................       sd=memchr(digits,tolower(*sc),base); 
....................    } 
....................    if(s1==sc) 
....................    { 
....................    StrtolGO: 
....................       if (endptr) 
....................       { 
....................          #IF LONG_POINTERS 
....................          *((int16 *)endptr)= s;  
....................          #ELSE 
....................          *((char *)endptr)=s; 
....................          #ENDIF 
....................       } 
....................    return 0; 
....................    } 
....................    if(sign=='-') 
....................       x  =-x; 
....................    if (endptr) 
....................    { 
....................         #IF LONG_POINTERS 
....................          *((int16 *)endptr)= sc;  
....................         #ELSE 
....................         *((char *)endptr)=sc; 
....................         #ENDIF 
....................    } 
....................    return x; 
.................... } 
....................  
.................... signed int8 system(char *string) 
.................... { 
....................    return 0; 
.................... } 
....................  
.................... int8 mblen(char *s,size_t n) 
.................... { 
....................    return strlen(s); 
.................... } 
....................  
.................... int8 mbtowc(wchar_t *pwc,char *s,size_t n) 
.................... { 
....................    *pwc=*s; 
....................    return 1; 
.................... } 
....................  
.................... int8 wctomb(char *s,wchar_t wchar) 
.................... { 
....................    *s=wchar; 
....................    return 1; 
.................... } 
....................  
.................... size_t mbstowcs(wchar_t *pwcs,char *s,size_t n) 
.................... { 
....................    strncpy(pwcs,s,n); 
....................    return strlen(pwcs); 
.................... } 
....................  
.................... size_t wcstombs(char *s,wchar_t *pwcs,size_t n) 
.................... { 
....................    strncpy(s,pwcs,n); 
....................    return strlen(s); 
.................... } 
....................  
.................... //--------------------------------------------------------------------------- 
.................... // The random number implementation 
.................... //--------------------------------------------------------------------------- 
....................  
.................... unsigned int32 _Randseed; 
....................  
.................... unsigned int16 rand(void) 
.................... { 
....................    _Randseed = _Randseed * 1103515245 + 12345; 
....................    return ((unsigned int16)(_Randseed >> 16) % RAND_MAX); 
.................... } 
....................  
.................... void srand(unsigned int32 seed) 
.................... { 
....................    _Randseed = seed; 
.................... } 
....................  
.................... //--------------------------------------------------------------------------- 
.................... // Searching and sorting utilities implementation 
.................... //--------------------------------------------------------------------------- 
....................  
.................... #if !defined(__PCD__) 
.................... typedef signed int8 (*_Cmpfun)(char * p1,char * p2);  
.................... #else  
.................... typedef signed int16 (*_Cmpfun)(char * p1,char * p2);  
.................... #endif 
....................  
....................  
....................  
.................... void qsort(char * qdata, unsigned int qitems, unsigned int qsize, _Cmpfun cmp) { 
....................    unsigned int m,j,i,l; 
....................    int1 done; 
....................    unsigned int8 t[16]; 
....................  
....................    m = qitems/2; 
....................    while( m > 0 ) { 
....................      for(j=0; j<(qitems-m); ++j) { 
....................         i = j; 
....................         do 
....................         { 
....................            done=1; 
....................            l = i+m; 
....................            if( (*cmp)(qdata+i*qsize, qdata+l*qsize) > 0 ) { 
....................               memcpy(t, qdata+i*qsize, qsize); 
....................               memcpy(qdata+i*qsize, qdata+l*qsize, qsize); 
....................               memcpy(qdata+l*qsize, t, qsize); 
....................               if(m <= i) 
....................                 i -= m; 
....................                 done = 0; 
....................            } 
....................         } while(!done); 
....................      } 
....................      m = m/2; 
....................    } 
.................... } 
....................  
....................  
.................... char *bsearch(char *key, char *base, size_t num, size_t width,_Cmpfun cmp) 
.................... { 
....................    char *p, *q; 
....................    size_t n; 
....................    size_t pivot; 
....................    signed int val; 
....................  
....................    p = base; 
....................    n = num; 
....................  
....................    while (n > 0) 
....................    { 
....................       pivot = n >> 1; 
....................       q = p + width * pivot; 
....................  
....................       val = (*cmp)(key, q); 
....................  
....................       if (val < 0) 
....................          n = pivot; 
....................       else if (val == 0) 
....................          return ((char *)q); 
....................       else { 
....................          p = q + width; 
....................          n -= pivot + 1; 
....................       } 
....................    } 
....................  
....................    return NULL;      // There's no match 
.................... } 
....................  
....................  
.................... #endif 
....................  
.................... #FUSES HSM,NOPROTECT,PUT,NOLVP,BROWNOUT,NOMCLR,WDT32768  
.................... #FUSES NOPLLEN, NOFCMEN, NOIESO, NOXINST, NODEBUG, NOPROTECT 
.................... #use delay(clock=12000000, restart_wdt) 
....................  
.................... /*  
.................... Parameters are stored in EEPROM 
.................... */ 
.................... #define PARAM_CRC_ADDRESS  0x000 
.................... #define PARAM_ADDRESS      PARAM_CRC_ADDRESS+2 
....................  
.................... #define EE_FOR_HOST_ADDRESS 512 
....................  
....................  
.................... #define WEATHER_X_BAUD 57600 
....................  
....................  
.................... /* UART1 - async serial connection connection to Pi */ 
.................... #use rs232(UART1,stream=MODBUS_SERIAL,baud=WEATHER_X_BAUD,xmit=PIN_C6,rcv=PIN_C7,errors)	 
*
00612:  BTFSS  F9E.5
00614:  BRA    0612
00616:  MOVFF  FAB,35
0061A:  MOVFF  FAE,01
0061E:  BTFSS  35.1
00620:  BRA    0626
00622:  BCF    FAB.4
00624:  BSF    FAB.4
00626:  RETURN 0
*
01088:  BTFSS  F9E.4
0108A:  BRA    1088
0108C:  MOVWF  FAD
0108E:  GOTO   109A (RETURN)
....................  
....................  
.................... #byte TXSTA=GETENV("SFR:txsta1") 
.................... #bit  TRMT=TXSTA.1 
....................  
.................... #byte TXSTA2=GETENV("SFR:txsta2") 
.................... #bit  TRMT2=TXSTA2.1 
....................  
.................... #byte PORTB=GETENV("SFR:portb") 
.................... #byte INTCON2=GETENV("SFR:intcon2") 
.................... #bit RBPU=INTCON2.7 
....................  
.................... /* UART2 - RS-485 network */ 
.................... #use rs232(UART2, stream=DEBUG, baud=9600,errors)	 
*
00628:  BTFSS  FA4.4
0062A:  BRA    0628
0062C:  MOVWF  F73
0062E:  GOTO   0672 (RETURN)
....................  
....................  
....................  
....................  
.................... #use fast_io(A) 
.................... #use fast_io(B) 
.................... #use fast_io(C) 
.................... #use fast_io(D) 
.................... #use fast_io(E) 
....................  
.................... #define LED_GREEN                PIN_A3 
.................... #define BUTTON                   PIN_B3 
.................... #define BUTTON_BIT               3 
.................... #define PI_POWER_EN              PIN_C0 
.................... #define PIC_BOOTLOAD_REQUEST     PIN_B4 
.................... #define PIC_BOOTLOAD_REQUEST_BIT 4 
.................... #define WATCHDOG_FROM_PI         PIN_B5 
.................... #define WATCHDOG_FROM_PI_BIT     5 
.................... #define SYNC_OUT                 PIN_D4 
.................... #define SER_TO_NET               PIN_D6 
.................... #define SER_FROM_NET             PIN_D7 
.................... #define PI_POWER_FLAG            PIN_C1 
....................  
.................... #define ADC_CLK                  PIN_C3 
.................... #define ADC_DOUT                 PIN_C4 
.................... #define ADC_DIN                  PIN_C5 
.................... #define ADC_NCS                  PIN_D2 
....................  
.................... #define RS485_NRE                PIN_D0 
.................... #define RS485_DE                 PIN_D1 
.................... #define PIC_TO_PI                PIN_D3 
.................... #define SER_TO_PI                PIN_C6 
.................... #define SER_FROM_PI              PIN_C7 
....................  
.................... typedef union { 
.................... 	int16 l[2]; 
....................     int8 b[4]; 
....................     int32 word; 
.................... } u_lblock; 
....................  
.................... #byte port_b=GETENV("SFR:portb") 
.................... #byte port_c=GETENV("SFR:portc") 
....................  
....................  
....................  
.................... typedef struct { 
.................... 	int8 modbus_address; 
.................... 	int8 modbus_mode; 
....................  
.................... 	int8 serial_prefix; 
.................... 	int16 serial_number; 
....................  
.................... 	int16 adc_sample_ticks; 
....................  
.................... 	int8 allow_bootload_request; 
.................... 	int16 watchdog_seconds_max; 
.................... 	int16 pi_offtime_seconds; 
....................  
....................  
.................... 	/* power control switch settings */ 
.................... 	int8 power_startup; /* 0==start with PI off, 1==start with PI on */ 
.................... 	int16 power_off_below_adc; 
.................... 	int16 power_off_below_delay; 
.................... 	int16 power_on_above_adc; 
.................... 	int16 power_on_above_delay; 
.................... 	int16 power_override_timeout; 
.................... } struct_config; 
....................  
....................  
....................  
.................... typedef struct { 
.................... 	/* most recent valid */ 
.................... 	int16 pulse_period[3]; 
.................... 	int16 pulse_min_period[3]; 
.................... 	int16 pulse_max_period[3]; 
.................... 	int16 pulse_count[3]; 
.................... 	int32 pulse_sum[3]; 
....................  
.................... 	int16 adc_std_dev[8]; 
....................  
.................... 	/* circular buffer for ADC readings */ 
.................... 	int16 adc_buffer[8][16]; 
.................... 	int8  adc_buffer_index; 
....................  
.................... 	int16 modbus_our_packets; 
.................... 	int16 modbus_other_packets; 
.................... 	int16 modbus_last_error; 
....................  
.................... 	int16 sequence_number; 
.................... 	int16 uptime_minutes; 
.................... 	int16 interval_milliseconds; 
....................  
.................... 	int8 factory_unlocked; 
.................... 	int1 bridged_uarts; 
....................  
.................... 	int16 watchdog_seconds; 
....................  
.................... 	/* power control switch */ 
.................... 	int8 p_on; 
.................... 	int16 power_on_delay; 
.................... 	int16 power_off_delay; 
.................... 	int16 power_override_timeout; 
.................... } struct_current; 
....................  
.................... typedef struct { 
.................... 	int16 pulse_period[4]; 
.................... 	int16 pulse_count[4]; 
.................... 	int8 pulse_ch_en; 
....................  
.................... 	int8 led_on_green; 
.................... 	int16 load_off_seconds; 
....................  
.................... 	int1 now_adc_sample; 
.................... 	int1 now_adc_reset_count; 
....................  
.................... 	int1 now_millisecond; 
....................  
.................... 	int8 port_b; 
.................... 	int8 port_c; 
.................... } struct_time_keep; 
....................  
....................  
.................... /* global structures */ 
.................... struct_config config; 
.................... struct_current current; 
.................... struct_time_keep timers; 
....................  
.................... #include "mcp3208_pcwx.c" 
.................... #define MCP3208_CLK  ADC_CLK 
.................... #define MCP3208_DOUT ADC_DOUT 
.................... #define MCP3208_DIN  ADC_DIN 
....................  
.................... #inline 
.................... void mcp3208_init(void) { 
.................... 	output_high(ADC_NCS); 
*
00D42:  BSF    F8C.2
.................... } 
....................  
.................... int16 mcp3208_read(int8 ch) { 
.................... 	int16 value; 
.................... 	int8 i; 
.................... 	int8 c; 
....................  
....................  
....................  
.................... 	output_low(MCP3208_CLK); 
*
00CA2:  BCF    F8B.3
.................... 	output_high(MCP3208_DIN); 
00CA4:  BSF    F8B.5
....................  
.................... 	output_low(ADC_NCS); 
00CA6:  BCF    F8C.2
....................  
.................... 	/* d0, d1, d2, single / !differential, start */	 
.................... 	if ( 0 == ch )  
00CA8:  MOVLB  2
00CAA:  MOVF   xC9,F
00CAC:  BNZ   0CB4
.................... 		c=0b00011; 
00CAE:  MOVLW  03
00CB0:  MOVWF  xCD
.................... 	else if ( 1 == ch )  
00CB2:  BRA    0CFE
00CB4:  DECFSZ xC9,W
00CB6:  BRA    0CBE
.................... 		c=0b10011; 
00CB8:  MOVLW  13
00CBA:  MOVWF  xCD
.................... 	else if ( 2 == ch )  
00CBC:  BRA    0CFE
00CBE:  MOVF   xC9,W
00CC0:  SUBLW  02
00CC2:  BNZ   0CCA
.................... 		c=0b01011; 
00CC4:  MOVLW  0B
00CC6:  MOVWF  xCD
.................... 	else if ( 3 == ch )  
00CC8:  BRA    0CFE
00CCA:  MOVF   xC9,W
00CCC:  SUBLW  03
00CCE:  BNZ   0CD6
.................... 		c=0b11011; 
00CD0:  MOVLW  1B
00CD2:  MOVWF  xCD
.................... 	else if ( 4 == ch ) 
00CD4:  BRA    0CFE
00CD6:  MOVF   xC9,W
00CD8:  SUBLW  04
00CDA:  BNZ   0CE2
.................... 		c=0b00111; 
00CDC:  MOVLW  07
00CDE:  MOVWF  xCD
.................... 	else if ( 5 == ch )  
00CE0:  BRA    0CFE
00CE2:  MOVF   xC9,W
00CE4:  SUBLW  05
00CE6:  BNZ   0CEE
.................... 		c=0b10111; 
00CE8:  MOVLW  17
00CEA:  MOVWF  xCD
.................... 	else if ( 6 == ch ) 
00CEC:  BRA    0CFE
00CEE:  MOVF   xC9,W
00CF0:  SUBLW  06
00CF2:  BNZ   0CFA
.................... 		c=0b01111; 
00CF4:  MOVLW  0F
00CF6:  MOVWF  xCD
.................... 	else 
00CF8:  BRA    0CFE
.................... 		c=0b11111; 
00CFA:  MOVLW  1F
00CFC:  MOVWF  xCD
....................  
.................... 	/* select out channel and start the conversion */ 
.................... 	for ( i=0 ; i<5 ; i++ ) { 
00CFE:  CLRF   xCC
00D00:  MOVF   xCC,W
00D02:  SUBLW  04
00D04:  BNC   0D1C
.................... 		output_low(MCP3208_CLK); 
00D06:  BCF    F8B.3
.................... 		output_bit(MCP3208_DIN,c&1); 
00D08:  BTFSC  xCD.0
00D0A:  BRA    0D10
00D0C:  BCF    F8B.5
00D0E:  BRA    0D12
00D10:  BSF    F8B.5
.................... 		c=c>>1; 
00D12:  BCF    FD8.0
00D14:  RRCF   xCD,F
.................... 		output_high(MCP3208_CLK); 
00D16:  BSF    F8B.3
.................... 	} 
00D18:  INCF   xCC,F
00D1A:  BRA    0D00
....................  
....................  
.................... 	value=0; 
00D1C:  CLRF   xCB
00D1E:  CLRF   xCA
.................... 	for ( i=0 ; i<14 ; i++ ) { 
00D20:  CLRF   xCC
00D22:  MOVF   xCC,W
00D24:  SUBLW  0D
00D26:  BNC   0D3E
.................... 		output_low(MCP3208_CLK); 
00D28:  BCF    F8B.3
.................... 		shift_left(&value,2,input(MCP3208_DOUT)); 
00D2A:  BTFSC  F82.4
00D2C:  BRA    0D32
00D2E:  BCF    FD8.0
00D30:  BRA    0D34
00D32:  BSF    FD8.0
00D34:  RLCF   xCA,F
00D36:  RLCF   xCB,F
.................... 		output_high(MCP3208_CLK); 
00D38:  BSF    F8B.3
.................... 	} 
00D3A:  INCF   xCC,F
00D3C:  BRA    0D22
....................  
.................... 	bit_clear(value,13); 
00D3E:  BCF    xCB.5
.................... 	bit_clear(value,12); 
00D40:  BCF    xCB.4
....................  
.................... 	/* de-select ADCs */ 
.................... 	mcp3208_init(); 
....................  
.................... 	return value; 
*
00D44:  MOVFF  2CA,01
00D48:  MOVFF  2CB,02
.................... } 
00D4C:  MOVLB  0
00D4E:  GOTO   0DBE (RETURN)
....................  
.................... #include "adc_pcwx.c" 
.................... // const int8 adcChannelMap[8]={AN_IN_VOLTS, AN_TEMPERATURE, AN_WIND_DIR_0, AN_WIND_DIR_1, AN_USER_USER_0, AN_USER_USER_1, AN_USER_USER_2, AN_USER_USER_3}; 
....................  
.................... int16 adc_get(int8 ch) { 
.................... 	int16 sum; 
.................... 	int8 i; 
....................  
.................... 	/* pre-compute address of channel adc buffer. Saves computing it 16 times in the loop below */ 
.................... 	int16 *p; 
.................... 	p = current.adc_buffer[ch]; 
*
00DF8:  MOVLB  2
00DFA:  CLRF   xE1
00DFC:  MOVFF  2DA,2E0
00E00:  CLRF   xE3
00E02:  MOVLW  20
00E04:  MOVWF  xE2
00E06:  MOVLB  0
00E08:  RCALL  0824
00E0A:  MOVFF  02,03
00E0E:  MOVF   01,W
00E10:  ADDLW  81
00E12:  MOVWF  01
00E14:  MOVLW  00
00E16:  ADDWFC 03,F
00E18:  MOVFF  01,2DE
00E1C:  MOVLB  2
00E1E:  MOVFF  03,2DF
....................  
.................... 	// Calculate the mean.  This is done by summing up the 
.................... 	// values and dividing by the number of elements. 
.................... 	sum = 0; 
00E22:  CLRF   xDC
00E24:  CLRF   xDB
.................... 	for( i = 0; i < 16 ; i++ ) { 
00E26:  CLRF   xDD
00E28:  MOVF   xDD,W
00E2A:  SUBLW  0F
00E2C:  BNC   0E50
.................... //		sum += current.adc_buffer[ch][i]; 
.................... 		sum += p[i]; 
00E2E:  BCF    FD8.0
00E30:  RLCF   xDD,W
00E32:  CLRF   03
00E34:  ADDWF  xDE,W
00E36:  MOVWF  FE9
00E38:  MOVF   xDF,W
00E3A:  ADDWFC 03,W
00E3C:  MOVWF  FEA
00E3E:  MOVFF  FEC,03
00E42:  MOVF   FED,F
00E44:  MOVF   FEF,W
00E46:  ADDWF  xDB,F
00E48:  MOVF   03,W
00E4A:  ADDWFC xDC,F
.................... 	} 
00E4C:  INCF   xDD,F
00E4E:  BRA    0E28
....................  
.................... 	/* divide sum by our 16 samples and round by adding 8 */ 
.................... 	return ( (sum+8) >> 4 ); 
00E50:  MOVLW  08
00E52:  ADDWF  xDB,W
00E54:  MOVWF  xE0
00E56:  MOVLW  00
00E58:  ADDWFC xDC,W
00E5A:  MOVWF  xE1
00E5C:  RRCF   xE1,W
00E5E:  MOVWF  03
00E60:  RRCF   xE0,W
00E62:  MOVWF  02
00E64:  RRCF   03,F
00E66:  RRCF   02,F
00E68:  RRCF   03,F
00E6A:  RRCF   02,F
00E6C:  RRCF   03,F
00E6E:  RRCF   02,F
00E70:  MOVLW  0F
00E72:  ANDWF  03,F
00E74:  MOVFF  02,01
00E78:  MOVFF  03,02
.................... } 
00E7C:  MOVLB  0
00E7E:  RETURN 0
....................  
....................  
.................... void adc_update(void) { 
.................... 	int8 i; 
....................  
.................... 	/* wrap buffer around */ 
.................... 	current.adc_buffer_index++; 
*
00D52:  MOVLB  1
00D54:  INCF   x81,F
.................... 	if ( current.adc_buffer_index >= 16 ) 
00D56:  MOVF   x81,W
00D58:  SUBLW  0F
00D5A:  BC    0D5E
.................... 		current.adc_buffer_index=0; 
00D5C:  CLRF   x81
....................  
....................  
.................... 	for ( i=0 ; i<8 ; i++ ) { 
00D5E:  MOVLB  2
00D60:  CLRF   xC6
00D62:  MOVF   xC6,W
00D64:  SUBLW  07
00D66:  BNC   0DF4
.................... 		current.adc_buffer[i][current.adc_buffer_index] = mcp3208_read(i); 
00D68:  CLRF   xE1
00D6A:  MOVFF  2C6,2E0
00D6E:  CLRF   xE3
00D70:  MOVLW  20
00D72:  MOVWF  xE2
00D74:  MOVLB  0
00D76:  RCALL  0824
00D78:  MOVFF  02,03
00D7C:  MOVF   01,W
00D7E:  ADDLW  34
00D80:  MOVLB  2
00D82:  MOVWF  xC7
00D84:  MOVLW  00
00D86:  ADDWFC 02,W
00D88:  MOVWF  xC8
00D8A:  CLRF   03
00D8C:  MOVLB  1
00D8E:  MOVFF  181,02
00D92:  BCF    FD8.0
00D94:  RLCF   02,F
00D96:  RLCF   03,F
00D98:  MOVF   02,W
00D9A:  MOVLB  2
00D9C:  ADDWF  xC7,W
00D9E:  MOVWF  01
00DA0:  MOVF   xC8,W
00DA2:  ADDWFC 03,F
00DA4:  MOVF   01,W
00DA6:  ADDLW  4D
00DA8:  MOVWF  01
00DAA:  MOVLW  00
00DAC:  ADDWFC 03,F
00DAE:  MOVFF  01,2C7
00DB2:  MOVFF  03,2C8
00DB6:  MOVFF  2C6,2C9
00DBA:  MOVLB  0
00DBC:  BRA    0CA2
00DBE:  MOVFF  2C8,FEA
00DC2:  MOVFF  2C7,FE9
00DC6:  MOVFF  02,FEC
00DCA:  MOVF   FED,F
00DCC:  MOVFF  01,FEF
.................... 		current.adc_std_dev[i]=0; 
00DD0:  CLRF   03
00DD2:  MOVLB  2
00DD4:  MOVFF  2C6,02
00DD8:  BCF    FD8.0
00DDA:  RLCF   02,F
00DDC:  RLCF   03,F
00DDE:  MOVF   02,W
00DE0:  ADDLW  71
00DE2:  MOVWF  FE9
00DE4:  MOVLW  00
00DE6:  ADDWFC 03,W
00DE8:  MOVWF  FEA
00DEA:  CLRF   FEC
00DEC:  MOVF   FED,F
00DEE:  CLRF   FEF
....................  
.................... 	} 
00DF0:  INCF   xC6,F
00DF2:  BRA    0D62
.................... } 
00DF4:  MOVLB  0
00DF6:  RETURN 0
....................  
.................... #include "param_pcwx.c" 
.................... #inline 
.................... char xor_crc(char oldcrc, char data) { 
.................... 	return oldcrc ^ data; 
*
00AEC:  MOVF   xE1,W
00AEE:  XORWF  xE2,W
00AF0:  MOVWF  01
*
00B3E:  MOVF   xE1,W
00B40:  XORWF  xE2,W
00B42:  MOVWF  01
.................... } 
....................  
.................... char EEPROMDataRead( int16 address, int8 *data, int16 count ) { 
*
00A76:  MOVLB  2
00A78:  CLRF   xCF
.................... 	char crc=0; 
....................  
.................... 	while ( count-- != 0 ) { 
00A7A:  MOVFF  2CE,03
00A7E:  MOVF   xCD,W
00A80:  BTFSC  FD8.2
00A82:  DECF   xCE,F
00A84:  DECF   xCD,F
00A86:  MOVWF  xD0
00A88:  MOVFF  03,2D1
00A8C:  MOVF   xD0,F
00A8E:  BNZ   0A94
00A90:  MOVF   xD1,F
00A92:  BZ    0AFE
.................... 		*data = read_eeprom( address++ ); 
00A94:  MOVFF  2CC,03
00A98:  MOVF   xCB,W
00A9A:  MOVWF  FE9
00A9C:  MOVFF  03,FEA
00AA0:  MOVF   xCA,W
00AA2:  MOVWF  03
00AA4:  MOVF   xC9,W
00AA6:  INCF   xC9,F
00AA8:  BTFSC  FD8.2
00AAA:  INCF   xCA,F
00AAC:  MOVWF  xD2
00AAE:  MOVFF  03,2D3
00AB2:  MOVFF  FF2,2D4
00AB6:  BCF    FF2.6
00AB8:  BCF    FF2.7
00ABA:  MOVFF  2D3,FAA
00ABE:  MOVFF  2D2,FA9
00AC2:  BCF    FA6.6
00AC4:  BCF    FA6.7
00AC6:  BSF    FA6.0
00AC8:  MOVF   FA8,W
00ACA:  BTFSC  xD4.6
00ACC:  BSF    FF2.6
00ACE:  BTFSC  xD4.7
00AD0:  BSF    FF2.7
00AD2:  MOVWF  FEF
.................... 		crc = xor_crc(crc,*data); 
00AD4:  MOVFF  2CC,03
00AD8:  MOVF   xCB,W
00ADA:  MOVWF  FE9
00ADC:  MOVFF  03,FEA
00AE0:  MOVFF  FEF,2D0
00AE4:  MOVFF  2CF,2E1
00AE8:  MOVFF  2D0,2E2
*
00AF2:  MOVFF  01,2CF
.................... 		data++; 
00AF6:  INCF   xCB,F
00AF8:  BTFSC  FD8.2
00AFA:  INCF   xCC,F
.................... 	} 
00AFC:  BRA    0A7A
.................... 	return crc; 
00AFE:  MOVFF  2CF,01
.................... } 
00B02:  MOVLB  0
00B04:  GOTO   0C56 (RETURN)
....................  
.................... char EEPROMDataWrite( int16 address, int8 *data, int16 count ) { 
00B08:  MOVLB  2
00B0A:  CLRF   xDF
.................... 	char crc=0; 
....................  
.................... 	while ( count-- != 0 ) { 
00B0C:  MOVFF  2DE,03
00B10:  MOVF   xDD,W
00B12:  BTFSC  FD8.2
00B14:  DECF   xDE,F
00B16:  DECF   xDD,F
00B18:  MOVWF  xE0
00B1A:  MOVFF  03,2E1
00B1E:  MOVF   xE0,F
00B20:  BNZ   0B26
00B22:  MOVF   xE1,F
00B24:  BZ    0BA4
.................... 		/* restart_wdt() */ 
.................... 		crc = xor_crc(crc,*data); 
00B26:  MOVFF  2DC,03
00B2A:  MOVF   xDB,W
00B2C:  MOVWF  FE9
00B2E:  MOVFF  03,FEA
00B32:  MOVFF  FEF,2E0
00B36:  MOVFF  2DF,2E1
00B3A:  MOVFF  2E0,2E2
*
00B44:  MOVFF  01,2DF
.................... 		write_eeprom( address++, *data++ ); 
00B48:  MOVF   xDA,W
00B4A:  MOVWF  03
00B4C:  MOVF   xD9,W
00B4E:  INCF   xD9,F
00B50:  BTFSC  FD8.2
00B52:  INCF   xDA,F
00B54:  MOVWF  xE0
00B56:  MOVFF  03,2E1
00B5A:  MOVF   xDC,W
00B5C:  MOVWF  03
00B5E:  MOVF   xDB,W
00B60:  INCF   xDB,F
00B62:  BTFSC  FD8.2
00B64:  INCF   xDC,F
00B66:  MOVWF  FE9
00B68:  MOVFF  03,FEA
00B6C:  MOVFF  FEF,2E2
00B70:  MOVFF  2E1,FAA
00B74:  MOVFF  2E0,FA9
00B78:  MOVFF  2E2,FA8
00B7C:  BCF    FA6.6
00B7E:  BCF    FA6.7
00B80:  BSF    FA6.2
00B82:  MOVF   FF2,W
00B84:  MOVWF  00
00B86:  BCF    FF2.6
00B88:  BCF    FF2.7
00B8A:  MOVLB  F
00B8C:  MOVLW  55
00B8E:  MOVWF  FA7
00B90:  MOVLW  AA
00B92:  MOVWF  FA7
00B94:  BSF    FA6.1
00B96:  BTFSC  FA6.1
00B98:  BRA    0B96
00B9A:  BCF    FA6.2
00B9C:  MOVF   00,W
00B9E:  IORWF  FF2,F
.................... 	} 
00BA0:  MOVLB  2
00BA2:  BRA    0B0C
....................  
.................... 	return crc; 
00BA4:  MOVFF  2DF,01
.................... } 
00BA8:  MOVLB  0
00BAA:  GOTO   0BCE (RETURN)
....................  
.................... void write_param_file() { 
.................... 	int8 crc; 
....................  
.................... 	/* write the config structure */ 
.................... 	crc = EEPROMDataWrite(PARAM_ADDRESS,(void *)&config,sizeof(config)); 
00BAE:  MOVLB  2
00BB0:  CLRF   xD8
00BB2:  MOVLW  36
00BB4:  MOVWF  xD7
00BB6:  CLRF   xDA
00BB8:  MOVLW  02
00BBA:  MOVWF  xD9
00BBC:  MOVFF  2D8,2DC
00BC0:  MOVFF  2D7,2DB
00BC4:  CLRF   xDE
00BC6:  MOVLW  17
00BC8:  MOVWF  xDD
00BCA:  MOVLB  0
00BCC:  BRA    0B08
00BCE:  MOVFF  01,2D6
.................... 	/* write the CRC was calculated on the structure */ 
.................... 	write_eeprom(PARAM_CRC_ADDRESS,crc); 
00BD2:  CLRF   FAA
00BD4:  CLRF   FA9
00BD6:  MOVFF  2D6,FA8
00BDA:  BCF    FA6.6
00BDC:  BCF    FA6.7
00BDE:  BSF    FA6.2
00BE0:  MOVF   FF2,W
00BE2:  MOVWF  00
00BE4:  BCF    FF2.6
00BE6:  BCF    FF2.7
00BE8:  MOVLB  F
00BEA:  MOVLW  55
00BEC:  MOVWF  FA7
00BEE:  MOVLW  AA
00BF0:  MOVWF  FA7
00BF2:  BSF    FA6.1
00BF4:  BTFSC  FA6.1
00BF6:  BRA    0BF4
00BF8:  BCF    FA6.2
00BFA:  MOVF   00,W
00BFC:  IORWF  FF2,F
.................... } 
00BFE:  MOVLB  0
00C00:  RETURN 0
....................  
.................... void write_default_param_file() { 
.................... 	/* red LED for 1.5 seconds */ 
.................... 	timers.led_on_green=150; 
00C02:  MOVLW  96
00C04:  MOVLB  1
00C06:  MOVWF  xAA
....................  
.................... //	config.modbus_address=38; 
.................... 	config.modbus_address=128; /* use any address */ 
00C08:  MOVLW  80
00C0A:  MOVWF  36
....................  
.................... 	config.serial_prefix='P'; 
00C0C:  MOVLW  50
00C0E:  MOVWF  38
.................... 	config.serial_number=9876; 
00C10:  MOVLW  26
00C12:  MOVWF  3A
00C14:  MOVLW  94
00C16:  MOVWF  39
....................  
.................... 	config.adc_sample_ticks=20; 
00C18:  CLRF   3C
00C1A:  MOVLW  14
00C1C:  MOVWF  3B
.................... 	config.allow_bootload_request=0; 
00C1E:  CLRF   3D
....................  
.................... 	config.watchdog_seconds_max=630; /* 10 minutes & 30 seconds */ 
00C20:  MOVLW  02
00C22:  MOVWF  3F
00C24:  MOVLW  76
00C26:  MOVWF  3E
.................... 	config.pi_offtime_seconds=2; 
00C28:  CLRF   41
00C2A:  MOVLW  02
00C2C:  MOVWF  40
.................... 	config.power_startup=0; 
00C2E:  CLRF   42
....................  
.................... 	/* write them so next time we use from EEPROM */ 
.................... 	write_param_file(); 
00C30:  MOVLB  0
00C32:  RCALL  0BAE
....................  
.................... } 
00C34:  RETURN 0
....................  
....................  
.................... void read_param_file() { 
.................... 	int8 crc; 
....................  
.................... 	crc = EEPROMDataRead(PARAM_ADDRESS, (void *)&config, sizeof(config));  
00C36:  MOVLB  2
00C38:  CLRF   xC8
00C3A:  MOVLW  36
00C3C:  MOVWF  xC7
00C3E:  CLRF   xCA
00C40:  MOVLW  02
00C42:  MOVWF  xC9
00C44:  MOVFF  2C8,2CC
00C48:  MOVFF  2C7,2CB
00C4C:  CLRF   xCE
00C4E:  MOVLW  17
00C50:  MOVWF  xCD
00C52:  MOVLB  0
00C54:  BRA    0A76
00C56:  MOVFF  01,2C6
.................... 		 
.................... 	if ( crc != read_eeprom(PARAM_CRC_ADDRESS) ) { 
00C5A:  MOVFF  FF2,2C7
00C5E:  BCF    FF2.6
00C60:  BCF    FF2.7
00C62:  CLRF   FAA
00C64:  CLRF   FA9
00C66:  BCF    FA6.6
00C68:  BCF    FA6.7
00C6A:  BSF    FA6.0
00C6C:  MOVF   FA8,W
00C6E:  MOVLB  2
00C70:  BTFSC  xC7.6
00C72:  BSF    FF2.6
00C74:  BTFSC  xC7.7
00C76:  BSF    FF2.7
00C78:  SUBWF  xC6,W
00C7A:  BZ    0C82
.................... 		write_default_param_file(); 
00C7C:  MOVLB  0
00C7E:  RCALL  0C02
00C80:  MOVLB  2
.................... 	} 
.................... } 
00C82:  MOVLB  0
00C84:  GOTO   2316 (RETURN)
....................  
....................  
....................  
....................  
.................... #include "modbus_slave_pcwx.c" 
....................  
....................  
.................... ////////////////////////////////////////////////////////////////////////////////////////// 
.................... ////                                      modbus.c                                    //// 
.................... ////                                                                                  //// 
.................... ////                 MODBUS protocol driver for serial communications.                //// 
.................... ////                                                                                  //// 
.................... ////  Refer to documentation at http://www.modbus.org for more information on MODBUS. //// 
.................... ////                                                                                  //// 
.................... ////////////////////////////////////////////////////////////////////////////////////////// 
.................... ////                                                                                  //// 
.................... //// DEFINES:                                                                         //// 
.................... ////                                                                                  //// 
.................... ////  MODBUS_TYPE                   MODBUS_TYPE_MASTER or MODBUS_TYPE_SLAVE           //// 
.................... ////  MODBUS_SERIAL_INT_SOURCE      Source of interrupts                              //// 
.................... ////                                (MODBUS_INT_EXT,MODBUS_INT_RDA,MODBUS_INT_RDA2)   //// 
.................... ////  MODBUS_SERIAL_BAUD            Valid baud rate for serial                        //// 
.................... ////  MODBUS_SERIAL_RX_PIN          Valid pin for serial receive                      //// 
.................... ////  MODBUS_SERIAL_TX_PIN          Valid pin for serial transmit                     //// 
.................... ////  MODBUS_SERIAL_ENABLE_PIN      Valid pin for serial enable, rs485 only           //// 
.................... ////  MODBUS_SERIAL_RX_ENABLE       Valid pin for serial rcv enable, rs485 only       //// 
.................... ////  MODBUS_SERAIL_RX_BUFFER_SIZE  Size of the receive buffer                        //// 
.................... ////                                                                                  //// 
.................... ////                                                                                  //// 
.................... //// SHARED API:                                                                      //// 
.................... ////                                                                                  //// 
.................... ////  modbus_init()                                                                   //// 
.................... ////    - Initialize modbus serial communication system                               //// 
.................... ////                                                                                  //// 
.................... ////  modbus_serial_send_start(address,func)                                          //// 
.................... ////    - Setup serial line to begin sending.  Once this is called, you can send data //// 
.................... ////      using modbus_serial_putc().  Should only be used for custom commands.       //// 
.................... ////                                                                                  //// 
.................... ////  modbus_serial_send_stop()                                                       //// 
.................... ////    - Must be called to finalize the send when modbus_serial_send_start is used.  //// 
.................... ////                                                                                  //// 
.................... ////  modbus_kbhit()                                                                  //// 
.................... ////    - Used to check if a packet has been received.                                //// 
.................... ////                                                                                  //// 
.................... //// MASTER API:                                                                      //// 
.................... ////  All master API functions return 0 on success.                                   //// 
.................... ////                                                                                  //// 
.................... ////  exception modbus_read_coils(address,start_address,quantity)                     //// 
.................... ////    - Wrapper for function 0x01(read coils) in the MODBUS specification.          //// 
.................... ////                                                                                  //// 
.................... ////  exception modbus_read_discrete_input(address,start_address,quantity)            //// 
.................... ////    - Wrapper for function 0x02(read discret input) in the MODBUS specification.  //// 
.................... ////                                                                                  //// 
.................... ////  exception modbus_read_holding_registers(address,start_address,quantity)         //// 
.................... ////    - Wrapper for function 0x03(read holding regs) in the MODBUS specification.   //// 
.................... ////                                                                                  //// 
.................... ////  exception modbus_read_input_registers(address,start_address,quantity)           //// 
.................... ////    - Wrapper for function 0x04(read input regs) in the MODBUS specification.     //// 
.................... ////                                                                                  //// 
.................... ////  exception modbus_write_single_coil(address,output_address,on)                   //// 
.................... ////    - Wrapper for function 0x05(write single coil) in the MODBUS specification.   //// 
.................... ////                                                                                  //// 
.................... ////  exception modbus_write_single_register(address,reg_address,reg_value)           //// 
.................... ////    - Wrapper for function 0x06(write single reg) in the MODBUS specification.    //// 
.................... ////                                                                                  //// 
.................... ////  exception modbus_read_exception_status(address)                                 //// 
.................... ////    - Wrapper for function 0x07(read void status) in the MODBUS specification.    //// 
.................... ////                                                                                  //// 
.................... ////  exception modbus_diagnostics(address,sub_func,data)                             //// 
.................... ////    - Wrapper for function 0x08(diagnostics) in the MODBUS specification.         //// 
.................... ////                                                                                  //// 
.................... ////  exception modbus_get_comm_event_counter(address)                                //// 
.................... ////    - Wrapper for function 0x0B(get comm event count) in the MODBUS specification.//// 
.................... ////                                                                                  //// 
.................... ////  exception modbus_get_comm_event_log(address)                                    //// 
.................... ////    - Wrapper for function 0x0C(get comm event log) in the MODBUS specification.  //// 
.................... ////                                                                                  //// 
.................... ////  exception modbus_write_multiple_coils(address,start_address,quantity,*values)   //// 
.................... ////    - Wrapper for function 0x0F(write multiple coils) in the MODBUS specification.//// 
.................... ////    - Special Note: values is a pointer to an int8 array, each byte represents 8  //// 
.................... ////                    coils.                                                        //// 
.................... ////                                                                                  //// 
.................... ////  exception modbus_write_multiple_registers(address,start_address,quantity,*values)/// 
.................... ////    - Wrapper for function 0x10(write multiple regs) in the MODBUS specification. //// 
.................... ////    - Special Note: values is a pointer to an int8 array                          //// 
.................... ////                                                                                  //// 
.................... ////  exception modbus_report_slave_id(address)                                       //// 
.................... ////    - Wrapper for function 0x11(report slave id) in the MODBUS specification.     //// 
.................... ////                                                                                  //// 
.................... ////  exception modbus_read_file_record(address,byte_count,*request)                  //// 
.................... ////    - Wrapper for function 0x14(read file record) in the MODBUS specification.    //// 
.................... ////                                                                                  //// 
.................... ////  exception modbus_write_file_record(address,byte_count,*request)                 //// 
.................... ////    - Wrapper for function 0x15(write file record) in the MODBUS specification.   //// 
.................... ////                                                                                  //// 
.................... ////  exception modbus_mask_write_register(address,reference_address,AND_mask,OR_mask)//// 
.................... ////    - Wrapper for function 0x16(read coils) in the MODBUS specification.          //// 
.................... ////                                                                                  //// 
.................... ////  exception modbus_read_write_multiple_registers(address,read_start,read_quantity,//// 
.................... ////                            write_start,write_quantity, *write_registers_value)   //// 
.................... ////    - Wrapper for function 0x17(read write mult regs) in the MODBUS specification.//// 
.................... ////                                                                                  //// 
.................... ////  exception modbus_read_FIFO_queue(address,FIFO_address)                          //// 
.................... ////    - Wrapper for function 0x18(read FIFO queue) in the MODBUS specification.     //// 
.................... ////                                                                                  //// 
.................... ////////////////////////////////////////////////////////////////////////////////////////// 
.................... ////                (C) Copyright 1996, 2006 Custom Computer Services                 //// 
.................... ////        This source code may only be used by licensed users of the CCS            //// 
.................... ////        C compiler.  This source code may only be distributed to other            //// 
.................... ////        licensed users of the CCS C compiler.  No other use,                      //// 
.................... ////        reproduction or distribution is permitted without written                 //// 
.................... ////        permission.  Derivative programs created using this software              //// 
.................... ////        in object code form are not restricted in any way.                        //// 
.................... ////////////////////////////////////////////////////////////////////////////////////////// 
....................  
....................  
....................  
.................... #define RCV_OFF() {disable_interrupts(INT_RDA);} 
....................  
....................  
.................... #define MODBUS_SERIAL_RX_BUFFER_SIZE  255      //size of send/rcv buffer 
....................  
.................... void wait_for_hw_buffer() { 
....................   while(!TRMT); 
*
010EC:  BTFSS  FAC.1
010EE:  BRA    10EC
.................... } 
010F0:  GOTO   110A (RETURN)
....................  
.................... int1 modbus_serial_new=0; 
....................  
.................... /******************************************************************** 
.................... These exceptions are defined in the MODBUS protocol.  These can be 
.................... used by the slave to communicate problems with the transmission back 
.................... to the master who can also use these to easily check the exceptions.   
.................... The first exception is the only one that is not part of the protocol  
.................... specification.  The TIMEOUT exception is returned when no slave  
.................... responds to the master's request within the timeout period. 
.................... ********************************************************************/ 
.................... typedef enum _exception{ILLEGAL_FUNCTION=1,ILLEGAL_DATA_ADDRESS=2,  
.................... ILLEGAL_DATA_VALUE=3,SLAVE_DEVICE_FAILURE=4,ACKNOWLEDGE=5,SLAVE_DEVICE_BUSY=6,  
.................... MEMORY_PARITY_ERROR=8,GATEWAY_PATH_UNAVAILABLE=10,GATEWAY_TARGET_NO_RESPONSE=11, 
.................... TIMEOUT=12} exception; 
....................  
.................... /******************************************************************** 
.................... These functions are defined in the MODBUS protocol.  These can be 
.................... used by the slave to check the incomming function.  See  
.................... ex_modbus_slave.c for example usage. 
.................... ********************************************************************/ 
.................... typedef enum _function{FUNC_READ_COILS=0x01,FUNC_READ_DISCRETE_INPUT=0x02, 
.................... FUNC_READ_HOLDING_REGISTERS=0x03,FUNC_READ_INPUT_REGISTERS=0x04, 
.................... FUNC_WRITE_SINGLE_COIL=0x05,FUNC_WRITE_SINGLE_REGISTER=0x06, 
.................... FUNC_READ_EXCEPTION_STATUS=0x07,FUNC_DIAGNOSTICS=0x08, 
.................... FUNC_GET_COMM_EVENT_COUNTER=0x0B,FUNC_GET_COMM_EVENT_LOG=0x0C, 
.................... FUNC_WRITE_MULTIPLE_COILS=0x0F,FUNC_WRITE_MULTIPLE_REGISTERS=0x10, 
.................... FUNC_REPORT_SLAVE_ID=0x11,FUNC_READ_FILE_RECORD=0x14, 
.................... FUNC_WRITE_FILE_RECORD=0x15,FUNC_MASK_WRITE_REGISTER=0x16, 
.................... FUNC_READ_WRITE_MULTIPLE_REGISTERS=0x17,FUNC_READ_FIFO_QUEUE=0x18} function; 
....................      
.................... /*Stages of MODBUS reception.  Used to keep our ISR fast enough.*/ 
.................... enum {MODBUS_GETADDY=0, MODBUS_GETFUNC=1, MODBUS_GETDATA=2} modbus_serial_state = 0; 
....................  
.................... /*Global value holding our current CRC value.*/ 
.................... union 
.................... { 
....................    int8 b[2]; 
....................    int16 d; 
.................... } modbus_serial_crc; 
....................  
.................... /******************************************************************** 
.................... Our receive struct.  This is used when receiving data as a master or 
.................... slave.  Once a message is sent to you with your address, you should 
.................... begin processing that message.  Refer to ex_modbus_slave.c to see  
.................... how to properly use this structure. 
.................... ********************************************************************/ 
.................... struct 
.................... { 
....................    int8 address; 
....................    int8 len;                                //number of bytes in the message received 
....................    function func;                           //the function of the message received 
....................    exception error;                         //error recieved, if any 
....................    int8 data[MODBUS_SERIAL_RX_BUFFER_SIZE]; //data of the message received 
.................... } modbus_rx; 
....................  
.................... /* Table of CRC values for highorder byte */ 
.................... const unsigned char modbus_auchCRCHi[] = { 
.................... 0x00,0xC1,0x81,0x40,0x01,0xC0,0x80,0x41,0x01,0xC0,0x80,0x41,0x00,0xC1,0x81, 
.................... 0x40,0x01,0xC0,0x80,0x41,0x00,0xC1,0x81,0x40,0x00,0xC1,0x81,0x40,0x01,0xC0, 
.................... 0x80,0x41,0x01,0xC0,0x80,0x41,0x00,0xC1,0x81,0x40,0x00,0xC1,0x81,0x40,0x01, 
.................... 0xC0,0x80,0x41,0x00,0xC1,0x81,0x40,0x01,0xC0,0x80,0x41,0x01,0xC0,0x80,0x41, 
.................... 0x00,0xC1,0x81,0x40,0x01,0xC0,0x80,0x41,0x00,0xC1,0x81,0x40,0x00,0xC1,0x81, 
.................... 0x40,0x01,0xC0,0x80,0x41,0x00,0xC1,0x81,0x40,0x01,0xC0,0x80,0x41,0x01,0xC0, 
.................... 0x80,0x41,0x00,0xC1,0x81,0x40,0x00,0xC1,0x81,0x40,0x01,0xC0,0x80,0x41,0x01, 
.................... 0xC0,0x80,0x41,0x00,0xC1,0x81,0x40,0x01,0xC0,0x80,0x41,0x00,0xC1,0x81,0x40, 
.................... 0x00,0xC1,0x81,0x40,0x01,0xC0,0x80,0x41,0x01,0xC0,0x80,0x41,0x00,0xC1,0x81, 
.................... 0x40,0x00,0xC1,0x81,0x40,0x01,0xC0,0x80,0x41,0x00,0xC1,0x81,0x40,0x01,0xC0, 
.................... 0x80,0x41,0x01,0xC0,0x80,0x41,0x00,0xC1,0x81,0x40,0x00,0xC1,0x81,0x40,0x01, 
.................... 0xC0,0x80,0x41,0x01,0xC0,0x80,0x41,0x00,0xC1,0x81,0x40,0x01,0xC0,0x80,0x41, 
.................... 0x00,0xC1,0x81,0x40,0x00,0xC1,0x81,0x40,0x01,0xC0,0x80,0x41,0x00,0xC1,0x81, 
.................... 0x40,0x01,0xC0,0x80,0x41,0x01,0xC0,0x80,0x41,0x00,0xC1,0x81,0x40,0x01,0xC0, 
.................... 0x80,0x41,0x00,0xC1,0x81,0x40,0x00,0xC1,0x81,0x40,0x01,0xC0,0x80,0x41,0x01, 
.................... 0xC0,0x80,0x41,0x00,0xC1,0x81,0x40,0x00,0xC1,0x81,0x40,0x01,0xC0,0x80,0x41, 
.................... 0x00,0xC1,0x81,0x40,0x01,0xC0,0x80,0x41,0x01,0xC0,0x80,0x41,0x00,0xC1,0x81, 
.................... 0x40 
.................... }; 
....................  
.................... /* Table of CRC values for loworder byte */ 
.................... const char modbus_auchCRCLo[] = { 
.................... 0x00,0xC0,0xC1,0x01,0xC3,0x03,0x02,0xC2,0xC6,0x06,0x07,0xC7,0x05,0xC5,0xC4, 
.................... 0x04,0xCC,0x0C,0x0D,0xCD,0x0F,0xCF,0xCE,0x0E,0x0A,0xCA,0xCB,0x0B,0xC9,0x09, 
.................... 0x08,0xC8,0xD8,0x18,0x19,0xD9,0x1B,0xDB,0xDA,0x1A,0x1E,0xDE,0xDF,0x1F,0xDD, 
.................... 0x1D,0x1C,0xDC,0x14,0xD4,0xD5,0x15,0xD7,0x17,0x16,0xD6,0xD2,0x12,0x13,0xD3, 
.................... 0x11,0xD1,0xD0,0x10,0xF0,0x30,0x31,0xF1,0x33,0xF3,0xF2,0x32,0x36,0xF6,0xF7, 
.................... 0x37,0xF5,0x35,0x34,0xF4,0x3C,0xFC,0xFD,0x3D,0xFF,0x3F,0x3E,0xFE,0xFA,0x3A, 
.................... 0x3B,0xFB,0x39,0xF9,0xF8,0x38,0x28,0xE8,0xE9,0x29,0xEB,0x2B,0x2A,0xEA,0xEE, 
.................... 0x2E,0x2F,0xEF,0x2D,0xED,0xEC,0x2C,0xE4,0x24,0x25,0xE5,0x27,0xE7,0xE6,0x26, 
.................... 0x22,0xE2,0xE3,0x23,0xE1,0x21,0x20,0xE0,0xA0,0x60,0x61,0xA1,0x63,0xA3,0xA2, 
.................... 0x62,0x66,0xA6,0xA7,0x67,0xA5,0x65,0x64,0xA4,0x6C,0xAC,0xAD,0x6D,0xAF,0x6F, 
.................... 0x6E,0xAE,0xAA,0x6A,0x6B,0xAB,0x69,0xA9,0xA8,0x68,0x78,0xB8,0xB9,0x79,0xBB, 
.................... 0x7B,0x7A,0xBA,0xBE,0x7E,0x7F,0xBF,0x7D,0xBD,0xBC,0x7C,0xB4,0x74,0x75,0xB5, 
.................... 0x77,0xB7,0xB6,0x76,0x72,0xB2,0xB3,0x73,0xB1,0x71,0x70,0xB0,0x50,0x90,0x91, 
.................... 0x51,0x93,0x53,0x52,0x92,0x96,0x56,0x57,0x97,0x55,0x95,0x94,0x54,0x9C,0x5C, 
.................... 0x5D,0x9D,0x5F,0x9F,0x9E,0x5E,0x5A,0x9A,0x9B,0x5B,0x99,0x59,0x58,0x98,0x88, 
.................... 0x48,0x49,0x89,0x4B,0x8B,0x8A,0x4A,0x4E,0x8E,0x8F,0x4F,0x8D,0x4D,0x4C,0x8C, 
.................... 0x44,0x84,0x85,0x45,0x87,0x47,0x46,0x86,0x82,0x42,0x43,0x83,0x41,0x81,0x80, 
.................... 0x40 
.................... }; 
....................  
.................... // Purpose:    Enable data reception 
.................... // Inputs:     None 
.................... // Outputs:    None 
.................... void RCV_ON(void) { 
.................... 	// Clear RX buffer. Clear RDA interrupt flag. Clear overrun error flag. 
.................... 	while ( kbhit(MODBUS_SERIAL) ) { 
*
00C88:  BTFSS  F9E.5
00C8A:  BRA    0C90
.................... 		fgetc(MODBUS_SERIAL); 
00C8C:  RCALL  0612
.................... 	} 
00C8E:  BRA    0C88
....................  
.................... 	clear_interrupt(INT_RDA); 
.................... 	enable_interrupts(INT_RDA); 
00C90:  BSF    F9D.5
.................... } 
00C92:  RETURN 0
....................  
.................... // Purpose:    Initialize RS485 communication. Call this before 
.................... //             using any other RS485 functions. 
.................... // Inputs:     None 
.................... // Outputs:    None 
.................... void modbus_init() { 
....................  
.................... 	RCV_ON(); 
00C94:  RCALL  0C88
....................  
.................... //	setup_timer_2(T2_DIV_BY_16,249,5);  //~4ms interrupts 
.................... //	setup_timer_0(RTCC_INTERNAL | RTCC_DIV_32 | RTCC_8_BIT); /* ~1.024 ms @ 8 MHz ... 0.686 ms @ 12 MHz */ 
....................  
.................... 	setup_timer_0(T0_INTERNAL | T0_DIV_128 | T0_8_BIT); /* ~4.096 ms @ 8 MHz ... 2.73 ms @ 12 MHz */ 
00C96:  MOVLW  C6
00C98:  MOVWF  FD5
.................... 	enable_interrupts(GLOBAL); 
00C9A:  MOVLW  C0
00C9C:  IORWF  FF2,F
.................... } 
00C9E:  GOTO   2358 (RETURN)
....................  
.................... // Purpose:    Start our timeout timer 
.................... // Inputs:     Enable, used to turn timer on/off 
.................... // Outputs:    None 
.................... void modbus_enable_timeout(int1 enable) { 
.................... 	disable_interrupts(INT_TIMER0); 
*
00390:  BCF    FF2.5
.................... 	if (enable) { 
00392:  MOVLB  2
00394:  MOVF   xE6,F
00396:  BZ    03A0
.................... 		set_timer0(0); 
00398:  CLRF   FD7
0039A:  CLRF   FD6
.................... 		clear_interrupt(INT_TIMER0); 
0039C:  BCF    FF2.2
.................... 		enable_interrupts(INT_TIMER0); 
0039E:  BSF    FF2.5
.................... 	} 
.................... } 
003A0:  MOVLB  0
003A2:  RETURN 0
....................  
.................... // Purpose:    Check if we have timed out waiting for a response 
.................... // Inputs:     None 
.................... // Outputs:    None 
.................... #int_timer0 
.................... void modbus_timeout_now(void) 
.................... { 
....................    if((modbus_serial_state == MODBUS_GETDATA) && (modbus_serial_crc.d == 0x0000) && (!modbus_serial_new)) 
003A4:  MOVLB  1
003A6:  MOVF   xB1,W
003A8:  SUBLW  02
003AA:  BNZ   03C0
003AC:  MOVF   xB2,F
003AE:  BNZ   03C0
003B0:  MOVF   xB3,F
003B2:  BNZ   03C0
003B4:  BTFSC  xB0.0
003B6:  BRA    03C0
....................    { 
....................       modbus_rx.len-=2; 
003B8:  MOVLW  02
003BA:  SUBWF  xB5,F
....................       modbus_serial_new=TRUE; 
003BC:  BSF    xB0.0
....................    } 
....................    else 
003BE:  BRA    03C2
....................       modbus_serial_new=FALSE; 
003C0:  BCF    xB0.0
....................  
....................    modbus_serial_crc.d=0xFFFF; 
003C2:  SETF   xB3
003C4:  SETF   xB2
....................    modbus_serial_state=MODBUS_GETADDY; 
003C6:  CLRF   xB1
....................    modbus_enable_timeout(FALSE); 
003C8:  MOVLB  2
003CA:  CLRF   xE6
003CC:  MOVLB  0
003CE:  RCALL  0390
.................... } 
....................  
.................... // Purpose:    Calculate crc of data and updates global crc 
.................... // Inputs:     Character 
.................... // Outputs:    None 
003D0:  BCF    FF2.2
003D2:  GOTO   007C
.................... void modbus_calc_crc(char data) 
.................... { 
....................   unsigned int8 uIndex ; // will index into CRC lookup table 
....................  
....................   uIndex = (modbus_serial_crc.b[1]) ^ data; // calculate the CRC 
*
00632:  MOVLB  1
00634:  MOVF   xB3,W
00636:  MOVLB  2
00638:  XORWF  xE6,W
0063A:  MOVWF  xE7
....................   modbus_serial_crc.b[1] = (modbus_serial_crc.b[0]) ^ modbus_auchCRCHi[uIndex]; 
0063C:  CLRF   03
0063E:  MOVF   xE7,W
00640:  MOVLB  0
00642:  RCALL  0170
00644:  MOVWF  01
00646:  MOVLB  1
00648:  MOVF   xB2,W
0064A:  XORWF  01,W
0064C:  MOVWF  xB3
....................   modbus_serial_crc.b[0] = modbus_auchCRCLo[uIndex]; 
0064E:  CLRF   03
00650:  MOVLB  2
00652:  MOVF   xE7,W
00654:  MOVLB  0
00656:  RCALL  0280
00658:  MOVFF  FE8,1B2
.................... } 
0065C:  RETURN 0
....................  
.................... // Purpose:    Puts a character onto the serial line 
.................... // Inputs:     Character 
.................... // Outputs:    None 
.................... void modbus_serial_putc(int8 c) { 
.................... 	fputc(c, MODBUS_SERIAL); 
*
01092:  MOVLB  2
01094:  MOVF   xD8,W
01096:  MOVLB  0
01098:  BRA    1088
0109A:  CLRF   19
0109C:  BTFSC  FF2.6
0109E:  BSF    19.6
010A0:  BCF    FF2.6
010A2:  BTFSC  FF2.7
010A4:  BSF    19.7
010A6:  BCF    FF2.7
.................... 	modbus_calc_crc(c); 
010A8:  MOVFF  2D8,2E6
010AC:  CALL   0632
010B0:  BTFSC  19.6
010B2:  BSF    FF2.6
010B4:  BTFSC  19.7
010B6:  BSF    FF2.7
....................  
.................... 	/* one stop bit delay */ 
.................... 	delay_us(9); 
010B8:  CLRWDT
010BA:  MOVLW  08
010BC:  MOVWF  00
010BE:  DECFSZ 00,F
010C0:  BRA    10BE
010C2:  NOP   
....................  
.................... 	//delay_us(1000000/MODBUS_SERIAL_BAUD); //one stop bit.  not exact 
.................... } 
010C4:  RETURN 0
....................  
....................  
.................... // Purpose:    Send a message over the RS485 bus 
.................... // Inputs:     1) The destination address 
.................... //             2) The number of bytes of data to send 
.................... //             3) A pointer to the data to send 
.................... //             4) The length of the data 
.................... // Outputs:    TRUE if successful 
.................... //             FALSE if failed 
.................... // Note:       Format:  source | destination | data-length | data | checksum 
.................... void modbus_serial_send_start(int8 to, int8 func) 
.................... { 
....................    modbus_serial_crc.d=0xFFFF; 
010C6:  MOVLB  1
010C8:  SETF   xB3
010CA:  SETF   xB2
....................    modbus_serial_new=FALSE; 
010CC:  BCF    xB0.0
....................  
....................    RCV_OFF(); 
010CE:  BCF    F9D.5
....................     
.................... //	output_high(MODBUS_SERIAL_RX_ENABLE); // JJJ 
....................  //  output_high(MODBUS_SERIAL_ENABLE_PIN); 
....................  
.................... 	/* 3.5 character delay (3500000/baud) */ 
.................... 	delay_us(31); /* 115200 */ 
010D0:  CLRWDT
010D2:  MOVLW  1E
010D4:  MOVWF  00
010D6:  DECFSZ 00,F
010D8:  BRA    10D6
010DA:  NOP   
....................  
....................    modbus_serial_putc(to); 
010DC:  MOVFF  2D6,2D8
010E0:  MOVLB  0
010E2:  RCALL  1092
....................    modbus_serial_putc(func); 
010E4:  MOVFF  2D7,2D8
010E8:  RCALL  1092
.................... } 
010EA:  RETURN 0
....................  
.................... void modbus_serial_send_stop() 
.................... { 
....................    int8 crc_low, crc_high; 
....................  
....................    crc_high=modbus_serial_crc.b[1]; 
*
010F4:  MOVFF  1B3,2D7
....................    crc_low=modbus_serial_crc.b[0]; 
010F8:  MOVFF  1B2,2D6
....................  
....................    modbus_serial_putc(crc_high); 
010FC:  MOVFF  2D7,2D8
01100:  RCALL  1092
....................    modbus_serial_putc(crc_low); 
01102:  MOVFF  2D6,2D8
01106:  RCALL  1092
....................  
....................    WAIT_FOR_HW_BUFFER(); 
01108:  BRA    10EC
....................      
.................... 	/* 3.5 character delay (3500000/baud) */ 
.................... 	delay_us(31); /* 115200 */ 
0110A:  CLRWDT
0110C:  MOVLW  1E
0110E:  MOVWF  00
01110:  DECFSZ 00,F
01112:  BRA    1110
01114:  NOP   
....................  
....................  
....................    RCV_ON(); 
01116:  RCALL  0C88
....................  
.................... //   output_low(MODBUS_SERIAL_ENABLE_PIN); 
.................... //	output_low(MODBUS_SERIAL_RX_ENABLE); // JJJ 
....................  
....................    modbus_serial_crc.d=0xFFFF; 
01118:  MOVLB  1
0111A:  SETF   xB3
0111C:  SETF   xB2
.................... } 
0111E:  MOVLB  0
01120:  RETURN 0
....................  
.................... // Purpose:    Get a message from the RS485 bus and store it in a buffer 
.................... // Inputs:     None 
.................... // Outputs:    TRUE if a message was received 
.................... //             FALSE if no message is available 
.................... // Note:       Data will be filled in at the modbus_rx struct: 
.................... int1 modbus_kbhit() 
.................... { 
....................    if(!modbus_serial_new) 
*
00FE0:  MOVLB  1
00FE2:  BTFSC  xB0.0
00FE4:  BRA    0FEE
....................       return FALSE; 
00FE6:  MOVLW  00
00FE8:  MOVWF  01
00FEA:  BRA    1000
....................    else if(modbus_rx.func & 0x80)           //did we receive an error? 
00FEC:  BRA    0FFA
00FEE:  BTFSS  xB6.7
00FF0:  BRA    0FFA
....................    { 
....................       modbus_rx.error = modbus_rx.data[0];  //if so grab the error and return true 
00FF2:  MOVFF  1B8,1B7
....................       modbus_rx.len = 1; 
00FF6:  MOVLW  01
00FF8:  MOVWF  xB5
....................    } 
....................    modbus_serial_new=FALSE; 
00FFA:  BCF    xB0.0
....................    return TRUE; 
00FFC:  MOVLW  01
00FFE:  MOVWF  01
.................... } 
01000:  MOVLB  0
01002:  GOTO   1F36 (RETURN)
....................  
.................... /*MODBUS Slave Functions*/ 
....................  
.................... /******************************************************************** 
.................... The following structs are used for read/write_sub_request_rsp.  These 
.................... functions take in one of these structs.  Please refer to the MODBUS 
.................... protocol specification if you do not understand the members of the 
.................... structure. 
.................... ********************************************************************/ 
.................... typedef struct _modbus_read_sub_request_rsp 
.................... { 
....................    int8 record_length; 
....................    int8 reference_type; 
....................    int16 data[((MODBUS_SERIAL_RX_BUFFER_SIZE)/2)-3]; 
.................... } modbus_read_sub_request_rsp; 
....................  
.................... typedef struct _modbus_write_sub_request_rsp 
.................... { 
....................    int8 reference_type; 
....................    int16 file_number; 
....................    int16 record_number; 
....................    int16 record_length; 
....................    int16 data[((MODBUS_SERIAL_RX_BUFFER_SIZE)/2)-8]; 
.................... } modbus_write_sub_request_rsp; 
....................  
....................  
.................... /******************************************************************** 
.................... The following slave functions are defined in the MODBUS protocol. 
.................... Please refer to http://www.modbus.org for the purpose of each of 
.................... these.  All functions take the slaves address as their first 
.................... parameter. 
.................... ********************************************************************/ 
....................  
.................... /* 
.................... read_coils_rsp 
.................... Input:     int8       address            Slave Address 
....................            int8       byte_count         Number of bytes being sent 
....................            int8*      coil_data          Pointer to an array of data to send 
.................... Output:    void 
.................... */ 
.................... void modbus_read_coils_rsp(int8 address, int8 byte_count, int8* coil_data) 
.................... { 
....................    int8 i; 
....................  
....................    modbus_serial_send_start(address, FUNC_READ_COILS); 
....................  
....................    modbus_serial_putc(byte_count); 
....................  
....................    for(i=0; i < byte_count; ++i) 
....................    { 
....................       modbus_serial_putc(*coil_data); 
....................       coil_data++; 
....................    } 
....................  
....................    modbus_serial_send_stop(); 
.................... } 
....................  
.................... /* 
.................... read_discrete_input_rsp 
.................... Input:     int8       address            Slave Address 
....................            int8       byte_count         Number of bytes being sent 
....................            int8*      input_data         Pointer to an array of data to send 
.................... Output:    void 
.................... */ 
.................... void modbus_read_discrete_input_rsp(int8 address, int8 byte_count,  
....................                                     int8 *input_data) 
.................... { 
....................    int8 i; 
....................  
....................    modbus_serial_send_start(address, FUNC_READ_DISCRETE_INPUT); 
....................  
....................    modbus_serial_putc(byte_count); 
....................  
....................    for(i=0; i < byte_count; ++i) 
....................    { 
....................       modbus_serial_putc(*input_data); 
....................       input_data++; 
....................    } 
....................  
....................    modbus_serial_send_stop(); 
.................... } 
....................  
.................... /* 
.................... read_holding_registers_rsp 
.................... Input:     int8       address            Slave Address 
....................            int8       byte_count         Number of bytes being sent 
....................            int8*      reg_data           Pointer to an array of data to send 
.................... Output:    void 
.................... */ 
.................... void modbus_read_holding_registers_rsp(int8 address, int8 byte_count,  
....................                                         int8 *reg_data) 
.................... { 
....................    int8 i; 
....................  
....................    modbus_serial_send_start(address, FUNC_READ_HOLDING_REGISTERS); 
....................  
....................    modbus_serial_putc(byte_count); 
....................  
....................    for(i=0; i < byte_count; ++i) 
....................    { 
....................       modbus_serial_putc(*reg_data); 
....................       reg_data++; 
....................    } 
....................  
....................    modbus_serial_send_stop(); 
.................... } 
....................  
.................... /* 
.................... read_input_registers_rsp 
.................... Input:     int8       address            Slave Address 
....................            int8       byte_count         Number of bytes being sent 
....................            int8*      input_data         Pointer to an array of data to send 
.................... Output:    void 
.................... */ 
.................... void modbus_read_input_registers_rsp(int8 address, int8 byte_count,  
....................                                         int8 *input_data) 
.................... { 
....................    int8 i; 
....................  
....................    modbus_serial_send_start(address, FUNC_READ_INPUT_REGISTERS); 
....................  
....................    modbus_serial_putc(byte_count); 
....................  
....................    for(i=0; i < byte_count; ++i) 
....................    { 
....................       modbus_serial_putc(*input_data); 
....................       input_data++; 
....................    } 
....................  
....................    modbus_serial_send_stop(); 
.................... } 
....................  
.................... /* 
.................... write_single_coil_rsp 
.................... Input:     int8       address            Slave Address 
....................            int16      output_address     Echo of output address received 
....................            int16      output_value       Echo of output value received 
.................... Output:    void 
.................... */ 
.................... void modbus_write_single_coil_rsp(int8 address, int16 output_address,  
....................                                     int16 output_value) 
.................... { 
....................    modbus_serial_send_start(address, FUNC_WRITE_SINGLE_COIL); 
....................  
....................    modbus_serial_putc(make8(output_address,1)); 
....................    modbus_serial_putc(make8(output_address,0)); 
....................  
....................    modbus_serial_putc(make8(output_value,1)); 
....................    modbus_serial_putc(make8(output_value,0)); 
....................  
....................    modbus_serial_send_stop(); 
.................... } 
....................  
.................... /* 
.................... write_single_register_rsp 
.................... Input:     int8       address            Slave Address 
....................            int16      reg_address        Echo of register address received 
....................            int16      reg_value          Echo of register value received 
.................... Output:    void 
.................... */ 
.................... void modbus_write_single_register_rsp(int8 address, int16 reg_address,  
....................                                         int16 reg_value) 
.................... { 
....................    modbus_serial_send_start(address, FUNC_WRITE_SINGLE_REGISTER); 
*
01EA2:  MOVFF  2CE,2D6
01EA6:  MOVLW  06
01EA8:  MOVLB  2
01EAA:  MOVWF  xD7
01EAC:  MOVLB  0
01EAE:  CALL   10C6
....................  
....................    modbus_serial_putc(make8(reg_address,1)); 
01EB2:  MOVFF  2D0,2D3
01EB6:  MOVFF  2D0,2D8
01EBA:  CALL   1092
....................    modbus_serial_putc(make8(reg_address,0)); 
01EBE:  MOVFF  2CF,2D3
01EC2:  MOVFF  2CF,2D8
01EC6:  CALL   1092
....................  
....................    modbus_serial_putc(make8(reg_value,1)); 
01ECA:  MOVFF  2D2,2D3
01ECE:  MOVFF  2D2,2D8
01ED2:  CALL   1092
....................    modbus_serial_putc(make8(reg_value,0)); 
01ED6:  MOVFF  2D1,2D3
01EDA:  MOVFF  2D1,2D8
01EDE:  CALL   1092
....................  
....................    modbus_serial_send_stop(); 
01EE2:  CALL   10F4
.................... } 
01EE6:  GOTO   2062 (RETURN)
....................  
.................... /* 
.................... read_exception_status_rsp 
.................... Input:     int8       address            Slave Address 
.................... Output:    void 
.................... */ 
.................... void modbus_read_exception_status_rsp(int8 address, int8 data) 
.................... { 
....................    modbus_serial_send_start(address, FUNC_READ_EXCEPTION_STATUS); 
....................    modbus_serial_send_stop(); 
.................... } 
....................  
.................... /* 
.................... diagnostics_rsp 
.................... Input:     int8       address            Slave Address 
....................            int16      sub_func           Echo of sub function received 
....................            int16      data               Echo of data received 
.................... Output:    void 
.................... */ 
.................... void modbus_diagnostics_rsp(int8 address, int16 sub_func, int16 data) 
.................... { 
....................    modbus_serial_send_start(address, FUNC_DIAGNOSTICS); 
....................  
....................    modbus_serial_putc(make8(sub_func,1)); 
....................    modbus_serial_putc(make8(sub_func,0)); 
....................  
....................    modbus_serial_putc(make8(data,1)); 
....................    modbus_serial_putc(make8(data,0)); 
....................  
....................    modbus_serial_send_stop(); 
.................... } 
....................  
.................... /* 
.................... get_comm_event_counter_rsp 
.................... Input:     int8       address            Slave Address 
....................            int16      status             Status, refer to MODBUS documentation 
....................            int16      event_count        Count of events 
.................... Output:    void 
.................... */ 
.................... void modbus_get_comm_event_counter_rsp(int8 address, int16 status,  
....................                                         int16 event_count) 
.................... { 
....................    modbus_serial_send_start(address, FUNC_GET_COMM_EVENT_COUNTER); 
....................  
....................    modbus_serial_putc(make8(status, 1)); 
....................    modbus_serial_putc(make8(status, 0)); 
....................  
....................    modbus_serial_putc(make8(event_count, 1)); 
....................    modbus_serial_putc(make8(event_count, 0)); 
....................  
....................    modbus_serial_send_stop(); 
.................... } 
....................  
.................... /* 
.................... get_comm_event_counter_rsp 
.................... Input:     int8       address            Slave Address 
....................            int16      status             Status, refer to MODBUS documentation 
....................            int16      event_count        Count of events 
....................            int16      message_count      Count of messages 
....................            int8*      events             Pointer to event data 
....................            int8       events_len         Length of event data in bytes 
.................... Output:    void 
.................... */ 
.................... void modbus_get_comm_event_log_rsp(int8 address, int16 status, 
....................                                     int16 event_count, int16 message_count,  
....................                                     int8 *events, int8 events_len) 
.................... { 
....................    int8 i; 
....................      
....................    modbus_serial_send_start(address, FUNC_GET_COMM_EVENT_LOG); 
....................  
....................    modbus_serial_putc(events_len+6); 
....................  
....................    modbus_serial_putc(make8(status, 1)); 
....................    modbus_serial_putc(make8(status, 0)); 
....................  
....................    modbus_serial_putc(make8(event_count, 1)); 
....................    modbus_serial_putc(make8(event_count, 0)); 
....................  
....................    modbus_serial_putc(make8(message_count, 1)); 
....................    modbus_serial_putc(make8(message_count, 0)); 
....................  
....................    for(i=0; i < events_len; ++i) 
....................    { 
....................       modbus_serial_putc(*events); 
....................       events++; 
....................    } 
....................  
....................    modbus_serial_send_stop(); 
.................... } 
....................  
.................... /* 
.................... write_multiple_coils_rsp 
.................... Input:     int8       address            Slave Address 
....................            int16      start_address      Echo of address to start at 
....................            int16      quantity           Echo of amount of coils written to 
.................... Output:    void 
.................... */ 
.................... void modbus_write_multiple_coils_rsp(int8 address, int16 start_address,  
....................                                         int16 quantity) 
.................... { 
....................    modbus_serial_send_start(address, FUNC_WRITE_MULTIPLE_COILS); 
....................  
....................    modbus_serial_putc(make8(start_address,1)); 
....................    modbus_serial_putc(make8(start_address,0)); 
....................  
....................    modbus_serial_putc(make8(quantity,1)); 
....................    modbus_serial_putc(make8(quantity,0)); 
....................  
....................    modbus_serial_send_stop(); 
.................... } 
....................  
.................... /* 
.................... write_multiple_registers_rsp 
.................... Input:     int8       address            Slave Address 
....................            int16      start_address      Echo of address to start at 
....................            int16      quantity           Echo of amount of registers written to 
.................... Output:    void 
.................... */ 
.................... void modbus_write_multiple_registers_rsp(int8 address, int16 start_address,  
....................                                             int16 quantity) 
.................... { 
....................    modbus_serial_send_start(address, FUNC_WRITE_MULTIPLE_REGISTERS); 
01EEA:  MOVFF  2CC,2D6
01EEE:  MOVLW  10
01EF0:  MOVLB  2
01EF2:  MOVWF  xD7
01EF4:  MOVLB  0
01EF6:  CALL   10C6
....................  
....................    modbus_serial_putc(make8(start_address,1)); 
01EFA:  MOVFF  2CE,2D1
01EFE:  MOVFF  2CE,2D8
01F02:  CALL   1092
....................    modbus_serial_putc(make8(start_address,0)); 
01F06:  MOVFF  2CD,2D1
01F0A:  MOVFF  2CD,2D8
01F0E:  CALL   1092
....................  
....................    modbus_serial_putc(make8(quantity,1)); 
01F12:  MOVFF  2D0,2D1
01F16:  MOVFF  2D0,2D8
01F1A:  CALL   1092
....................    modbus_serial_putc(make8(quantity,0)); 
01F1E:  MOVFF  2CF,2D1
01F22:  MOVFF  2CF,2D8
01F26:  CALL   1092
....................  
....................    modbus_serial_send_stop(); 
01F2A:  CALL   10F4
.................... } 
01F2E:  GOTO   2124 (RETURN)
....................  
.................... /* 
.................... report_slave_id_rsp 
.................... Input:     int8       address            Slave Address 
....................            int8       slave_id           Slave Address 
....................            int8       run_status         Are we running? 
....................            int8*      data               Pointer to an array holding the data 
....................            int8       data_len           Length of data in bytes 
.................... Output:    void 
.................... */ 
.................... void modbus_report_slave_id_rsp(int8 address, int8 slave_id, int1 run_status, 
....................                               int8 *data, int8 data_len) 
.................... { 
....................    int8 i; 
....................  
....................    modbus_serial_send_start(address, FUNC_REPORT_SLAVE_ID); 
....................  
....................    modbus_serial_putc(data_len+2); 
....................    modbus_serial_putc(slave_id); 
....................  
....................    if(run_status) 
....................     modbus_serial_putc(0xFF); 
....................    else 
....................     modbus_serial_putc(0x00); 
....................  
....................    for(i=0; i < data_len; ++i) 
....................    { 
....................       modbus_serial_putc(*data); 
....................       data++; 
....................    } 
....................  
....................    modbus_serial_send_stop(); 
.................... } 
....................  
.................... /* 
.................... read_file_record_rsp 
.................... Input:     int8                     address            Slave Address 
....................            int8                     byte_count         Number of bytes to send 
....................            read_sub_request_rsp*    request            Structure holding record/data information 
.................... Output:    void 
.................... */ 
.................... void modbus_read_file_record_rsp(int8 address, int8 byte_count,  
....................                                     modbus_read_sub_request_rsp *request) 
.................... { 
....................    int8 i=0,j; 
....................  
....................    modbus_serial_send_start(address, FUNC_READ_FILE_RECORD); 
....................  
....................    modbus_serial_putc(byte_count); 
....................  
....................    while(i < byte_count); 
....................    { 
....................       modbus_serial_putc(request->record_length); 
....................       modbus_serial_putc(request->reference_type); 
....................  
....................       for(j=0; (j < request->record_length); j+=2) 
....................       { 
....................          modbus_serial_putc(make8(request->data[j], 1)); 
....................          modbus_serial_putc(make8(request->data[j], 0)); 
....................       } 
....................  
....................       i += (request->record_length)+1; 
....................       request++; 
....................    } 
....................  
....................    modbus_serial_send_stop(); 
.................... } 
....................  
.................... /* 
.................... write_file_record_rsp 
.................... Input:     int8                     address            Slave Address 
....................            int8                     byte_count         Echo of number of bytes sent 
....................            write_sub_request_rsp*   request            Echo of Structure holding record information 
.................... Output:    void 
.................... */ 
.................... void modbus_write_file_record_rsp(int8 address, int8 byte_count,  
....................                                     modbus_write_sub_request_rsp *request) 
.................... { 
....................    int8 i, j=0; 
....................  
....................    modbus_serial_send_start(address, FUNC_WRITE_FILE_RECORD); 
....................  
....................    modbus_serial_putc(byte_count); 
....................  
....................    for(i=0; i < byte_count; i+=(7+(j*2))) 
....................    { 
....................       modbus_serial_putc(request->reference_type); 
....................       modbus_serial_putc(make8(request->file_number, 1)); 
....................       modbus_serial_putc(make8(request->file_number, 0)); 
....................       modbus_serial_putc(make8(request->record_number, 1)); 
....................       modbus_serial_putc(make8(request->record_number, 0)); 
....................       modbus_serial_putc(make8(request->record_length, 1)); 
....................       modbus_serial_putc(make8(request->record_length, 0)); 
....................  
....................       for(j=0; (j < request->record_length); j+=2) 
....................       { 
....................          modbus_serial_putc(make8(request->data[j], 1)); 
....................          modbus_serial_putc(make8(request->data[j], 0)); 
....................       } 
....................    } 
....................  
....................    modbus_serial_send_stop(); 
.................... } 
....................  
.................... /* 
.................... mask_write_register_rsp 
.................... Input:     int8        address            Slave Address 
....................            int16       reference_address  Echo of reference address 
....................            int16       AND_mask           Echo of AND mask 
....................            int16       OR_mask            Echo or OR mask 
.................... Output:    void 
.................... */ 
.................... void modbus_mask_write_register_rsp(int8 address, int16 reference_address, 
....................                            int16 AND_mask, int16 OR_mask) 
.................... { 
....................    modbus_serial_send_start(address, FUNC_MASK_WRITE_REGISTER); 
....................  
....................    modbus_serial_putc(make8(reference_address,1)); 
....................    modbus_serial_putc(make8(reference_address,0)); 
....................  
....................    modbus_serial_putc(make8(AND_mask,1)); 
....................    modbus_serial_putc(make8(AND_mask,0)); 
....................  
....................    modbus_serial_putc(make8(OR_mask, 1)); 
....................    modbus_serial_putc(make8(OR_mask, 0)); 
....................  
....................    modbus_serial_send_stop(); 
.................... } 
....................  
.................... /* 
.................... read_write_multiple_registers_rsp 
.................... Input:     int8        address            Slave Address 
....................            int16*      data               Pointer to an array of data 
....................            int8        data_len           Length of data in bytes 
.................... Output:    void 
.................... */ 
.................... void modbus_read_write_multiple_registers_rsp(int8 address, int8 data_len,  
....................                                                 int16 *data) 
.................... { 
....................    int8 i; 
....................  
....................    modbus_serial_send_start(address, FUNC_READ_WRITE_MULTIPLE_REGISTERS); 
....................  
....................    modbus_serial_putc(data_len*2); 
....................  
....................    for(i=0; i < data_len*2; i+=2) 
....................    { 
....................       modbus_serial_putc(make8(data[i], 1)); 
....................       modbus_serial_putc(make8(data[i], 0)); 
....................    } 
....................  
....................    modbus_serial_send_stop(); 
.................... } 
....................  
.................... /* 
.................... read_FIFO_queue_rsp 
.................... Input:     int8        address            Slave Address 
....................            int16       FIFO_len           Length of FIFO in bytes 
....................            int16*      data               Pointer to an array of data 
.................... Output:    void 
.................... */ 
.................... void modbus_read_FIFO_queue_rsp(int8 address, int16 FIFO_len, int16 *data) 
.................... { 
....................    int8 i; 
....................    int16 byte_count; 
....................  
....................    byte_count = ((FIFO_len*2)+2); 
....................  
....................    modbus_serial_send_start(address, FUNC_READ_FIFO_QUEUE); 
....................  
....................    modbus_serial_putc(make8(byte_count, 1)); 
....................    modbus_serial_putc(make8(byte_count, 0)); 
....................  
....................    modbus_serial_putc(make8(FIFO_len, 1)); 
....................    modbus_serial_putc(make8(FIFO_len, 0)); 
....................  
....................    for(i=0; i < FIFO_len; i+=2) 
....................    { 
....................       modbus_serial_putc(make8(data[i], 1)); 
....................       modbus_serial_putc(make8(data[i], 0)); 
....................    } 
....................  
....................    modbus_serial_send_stop(); 
.................... } 
....................  
.................... void modbus_exception_rsp(int8 address, int16 func, exception error) 
.................... { 
....................    modbus_serial_send_start(address, func|0x80); 
*
01122:  MOVLB  2
01124:  MOVF   xCD,W
01126:  IORLW  80
01128:  MOVWF  xD0
0112A:  MOVFF  2CE,2D1
0112E:  MOVFF  2CC,2D6
01132:  MOVWF  xD7
01134:  MOVLB  0
01136:  RCALL  10C6
....................    modbus_serial_putc(error); 
01138:  MOVFF  2CF,2D8
0113C:  RCALL  1092
....................    modbus_serial_send_stop(); 
0113E:  RCALL  10F4
.................... } 
01140:  RETURN 0
....................  
....................  
.................... #include "modbus_handler_pcwx.c" 
.................... #define MAX_STATUS_REGISTER  51 
....................  
.................... #define MIN_CONFIG_REGISTER  1000 
.................... #define MAX_CONFIG_REGISTER  1011 
....................  
.................... #define MIN_EE_REGISTER      2000 
.................... #define MAX_EE_REGISTER      MIN_EE_REGISTER + 512 
....................  
....................  
.................... /* This function may come in handy for you since MODBUS uses MSB first. */ 
.................... int8 swap_bits(int8 c) { 
.................... 	return ((c&1)?128:0)|((c&2)?64:0)|((c&4)?32:0)|((c&8)?16:0)|((c&16)?8:0)|((c&32)?4:0)|((c&64)?2:0)|((c&128)?1:0); 
.................... } 
....................  
.................... void reset_modbus_stats(void) { 
.................... 	current.modbus_our_packets=0; 
*
01208:  MOVLB  1
0120A:  CLRF   x83
0120C:  CLRF   x82
.................... 	current.modbus_other_packets=0; 
0120E:  CLRF   x85
01210:  CLRF   x84
.................... 	current.modbus_last_error=0; 
01212:  CLRF   x87
01214:  CLRF   x86
.................... } 
01216:  MOVLB  0
01218:  GOTO   1B28 (RETURN)
....................  
.................... void reset_counters(void) { 
.................... 	disable_interrupts(GLOBAL); 
*
011A4:  BCF    FF2.6
011A6:  BCF    FF2.7
011A8:  BTFSC  FF2.7
011AA:  BRA    11A6
....................  
.................... 	current.pulse_count[0]=0; 
011AC:  CLRF   x60
011AE:  CLRF   5F
.................... 	current.pulse_count[1]=0; 
011B0:  CLRF   x62
011B2:  CLRF   x61
.................... 	current.pulse_count[2]=0; 
011B4:  CLRF   x64
011B6:  CLRF   x63
....................  
.................... 	/* pulse period is reset in interrupt */ 
.................... 	current.pulse_min_period[0]=65535; 
011B8:  SETF   54
011BA:  SETF   53
.................... 	current.pulse_min_period[1]=65535; 
011BC:  SETF   56
011BE:  SETF   55
.................... 	current.pulse_min_period[2]=65535; 
011C0:  SETF   58
011C2:  SETF   57
.................... 	 
.................... 	current.pulse_max_period[0]=0; 
011C4:  CLRF   5A
011C6:  CLRF   59
.................... 	current.pulse_max_period[1]=0; 
011C8:  CLRF   5C
011CA:  CLRF   5B
.................... 	current.pulse_max_period[2]=0; 
011CC:  CLRF   5E
011CE:  CLRF   5D
.................... 	 
....................  
.................... 	current.interval_milliseconds=0; 
011D0:  MOVLB  1
011D2:  CLRF   x8D
011D4:  CLRF   x8C
....................  
.................... 	enable_interrupts(GLOBAL); 
011D6:  MOVLW  C0
011D8:  IORWF  FF2,F
.................... } 
011DA:  MOVLB  0
011DC:  GOTO   1AD8 (RETURN)
....................  
.................... void reset_pulse_sum(void) { 
.................... 	disable_interrupts(GLOBAL); 
011E0:  BCF    FF2.6
011E2:  BCF    FF2.7
011E4:  BTFSC  FF2.7
011E6:  BRA    11E2
.................... 	current.pulse_sum[0]=0; 
011E8:  CLRF   x68
011EA:  CLRF   x67
011EC:  CLRF   x66
011EE:  CLRF   x65
.................... 	current.pulse_sum[1]=0; 
011F0:  CLRF   x6C
011F2:  CLRF   x6B
011F4:  CLRF   x6A
011F6:  CLRF   x69
.................... 	current.pulse_sum[2]=0; 
011F8:  CLRF   x70
011FA:  CLRF   x6F
011FC:  CLRF   x6E
011FE:  CLRF   x6D
.................... 	enable_interrupts(GLOBAL); 
01200:  MOVLW  C0
01202:  IORWF  FF2,F
.................... } 
01204:  GOTO   1AE8 (RETURN)
....................  
.................... int32 get_pulse_sum(int8 ch) { 
.................... 	int32 l; 
....................  
.................... 	disable_interrupts(GLOBAL); 
*
01142:  BCF    FF2.6
01144:  BCF    FF2.7
01146:  BTFSC  FF2.7
01148:  BRA    1144
.................... 	l=current.pulse_sum[ch]; 
0114A:  MOVLB  2
0114C:  CLRF   xE1
0114E:  MOVFF  2DA,2E0
01152:  CLRF   xE3
01154:  MOVLW  04
01156:  MOVWF  xE2
01158:  MOVLB  0
0115A:  CALL   0824
0115E:  MOVFF  02,03
01162:  MOVF   01,W
01164:  ADDLW  65
01166:  MOVWF  FE9
01168:  MOVLW  00
0116A:  ADDWFC 02,W
0116C:  MOVWF  FEA
0116E:  MOVFF  FEF,00
01172:  MOVFF  FEC,01
01176:  MOVFF  FEC,02
0117A:  MOVFF  FEC,03
0117E:  MOVFF  03,2DE
01182:  MOVFF  02,2DD
01186:  MOVFF  01,2DC
0118A:  MOVFF  00,2DB
.................... 	enable_interrupts(GLOBAL); 
0118E:  MOVLW  C0
01190:  IORWF  FF2,F
....................  
.................... 	return l; 
01192:  MOVFF  2DB,00
01196:  MOVFF  2DC,01
0119A:  MOVFF  2DD,02
0119E:  MOVFF  2DE,03
.................... } 
011A2:  RETURN 0
....................  
.................... int16 map_modbus(int16 addr) { 
.................... 	static u_lblock ps; 
....................  
.................... 	if ( addr >= MIN_EE_REGISTER && addr < MAX_EE_REGISTER ) { 
*
0121C:  MOVLB  2
0121E:  MOVF   xD9,W
01220:  SUBLW  06
01222:  BC    1274
01224:  XORLW  FF
01226:  BNZ   122E
01228:  MOVF   xD8,W
0122A:  SUBLW  CF
0122C:  BC    1274
0122E:  MOVF   xD9,W
01230:  SUBLW  09
01232:  BNC   1274
01234:  BNZ   123C
01236:  MOVF   xD8,W
01238:  SUBLW  CF
0123A:  BNC   1274
.................... 		return (int16) read_eeprom(addr - MIN_EE_REGISTER); 
0123C:  MOVLW  D0
0123E:  SUBWF  xD8,W
01240:  MOVWF  xDA
01242:  MOVLW  07
01244:  SUBWFB xD9,W
01246:  MOVWF  xDB
01248:  MOVFF  FF2,2DC
0124C:  BCF    FF2.6
0124E:  BCF    FF2.7
01250:  MOVFF  2DB,FAA
01254:  MOVFF  2DA,FA9
01258:  BCF    FA6.6
0125A:  BCF    FA6.7
0125C:  BSF    FA6.0
0125E:  MOVF   FA8,W
01260:  BTFSC  xDC.6
01262:  BSF    FF2.6
01264:  BTFSC  xDC.7
01266:  BSF    FF2.7
01268:  CLRF   03
0126A:  MOVWF  01
0126C:  MOVF   03,W
0126E:  MOVWF  02
01270:  GOTO   1BEA
.................... 	} 
....................  
.................... 	switch ( addr ) { 
01274:  MOVF   xD8,W
01276:  MOVWF  00
01278:  MOVF   xD9,W
0127A:  MOVWF  03
0127C:  MOVF   03,W
0127E:  BNZ   128A
01280:  MOVF   00,F
01282:  MOVLB  0
01284:  BTFSC  FD8.2
01286:  BRA    1694
01288:  MOVLB  2
0128A:  MOVF   03,W
0128C:  BNZ   129A
0128E:  MOVLW  01
01290:  SUBWF  00,W
01292:  MOVLB  0
01294:  BTFSC  FD8.2
01296:  BRA    16A2
01298:  MOVLB  2
0129A:  MOVF   03,W
0129C:  BNZ   12AA
0129E:  MOVLW  02
012A0:  SUBWF  00,W
012A2:  MOVLB  0
012A4:  BTFSC  FD8.2
012A6:  BRA    16B0
012A8:  MOVLB  2
012AA:  MOVF   03,W
012AC:  BNZ   12BA
012AE:  MOVLW  03
012B0:  SUBWF  00,W
012B2:  MOVLB  0
012B4:  BTFSC  FD8.2
012B6:  BRA    16BE
012B8:  MOVLB  2
012BA:  MOVF   03,W
012BC:  BNZ   12CA
012BE:  MOVLW  04
012C0:  SUBWF  00,W
012C2:  MOVLB  0
012C4:  BTFSC  FD8.2
012C6:  BRA    16CC
012C8:  MOVLB  2
012CA:  MOVF   03,W
012CC:  BNZ   12DA
012CE:  MOVLW  05
012D0:  SUBWF  00,W
012D2:  MOVLB  0
012D4:  BTFSC  FD8.2
012D6:  BRA    16F2
012D8:  MOVLB  2
012DA:  MOVF   03,W
012DC:  BNZ   12EA
012DE:  MOVLW  06
012E0:  SUBWF  00,W
012E2:  MOVLB  0
012E4:  BTFSC  FD8.2
012E6:  BRA    1700
012E8:  MOVLB  2
012EA:  MOVF   03,W
012EC:  BNZ   12FA
012EE:  MOVLW  07
012F0:  SUBWF  00,W
012F2:  MOVLB  0
012F4:  BTFSC  FD8.2
012F6:  BRA    170E
012F8:  MOVLB  2
012FA:  MOVF   03,W
012FC:  BNZ   130A
012FE:  MOVLW  08
01300:  SUBWF  00,W
01302:  MOVLB  0
01304:  BTFSC  FD8.2
01306:  BRA    171C
01308:  MOVLB  2
0130A:  MOVF   03,W
0130C:  BNZ   131A
0130E:  MOVLW  09
01310:  SUBWF  00,W
01312:  MOVLB  0
01314:  BTFSC  FD8.2
01316:  BRA    172A
01318:  MOVLB  2
0131A:  MOVF   03,W
0131C:  BNZ   132A
0131E:  MOVLW  0A
01320:  SUBWF  00,W
01322:  MOVLB  0
01324:  BTFSC  FD8.2
01326:  BRA    1738
01328:  MOVLB  2
0132A:  MOVF   03,W
0132C:  BNZ   133A
0132E:  MOVLW  0B
01330:  SUBWF  00,W
01332:  MOVLB  0
01334:  BTFSC  FD8.2
01336:  BRA    1760
01338:  MOVLB  2
0133A:  MOVF   03,W
0133C:  BNZ   134A
0133E:  MOVLW  0C
01340:  SUBWF  00,W
01342:  MOVLB  0
01344:  BTFSC  FD8.2
01346:  BRA    176E
01348:  MOVLB  2
0134A:  MOVF   03,W
0134C:  BNZ   135A
0134E:  MOVLW  0D
01350:  SUBWF  00,W
01352:  MOVLB  0
01354:  BTFSC  FD8.2
01356:  BRA    177C
01358:  MOVLB  2
0135A:  MOVF   03,W
0135C:  BNZ   136A
0135E:  MOVLW  0E
01360:  SUBWF  00,W
01362:  MOVLB  0
01364:  BTFSC  FD8.2
01366:  BRA    178A
01368:  MOVLB  2
0136A:  MOVF   03,W
0136C:  BNZ   137A
0136E:  MOVLW  0F
01370:  SUBWF  00,W
01372:  MOVLB  0
01374:  BTFSC  FD8.2
01376:  BRA    1798
01378:  MOVLB  2
0137A:  MOVF   03,W
0137C:  BNZ   138A
0137E:  MOVLW  10
01380:  SUBWF  00,W
01382:  MOVLB  0
01384:  BTFSC  FD8.2
01386:  BRA    17A6
01388:  MOVLB  2
0138A:  MOVF   03,W
0138C:  BNZ   139A
0138E:  MOVLW  11
01390:  SUBWF  00,W
01392:  MOVLB  0
01394:  BTFSC  FD8.2
01396:  BRA    17CE
01398:  MOVLB  2
0139A:  MOVF   03,W
0139C:  BNZ   13AA
0139E:  MOVLW  12
013A0:  SUBWF  00,W
013A2:  MOVLB  0
013A4:  BTFSC  FD8.2
013A6:  BRA    17DC
013A8:  MOVLB  2
013AA:  MOVF   03,W
013AC:  BNZ   13BA
013AE:  MOVLW  13
013B0:  SUBWF  00,W
013B2:  MOVLB  0
013B4:  BTFSC  FD8.2
013B6:  BRA    180A
013B8:  MOVLB  2
013BA:  MOVF   03,W
013BC:  BNZ   13CA
013BE:  MOVLW  14
013C0:  SUBWF  00,W
013C2:  MOVLB  0
013C4:  BTFSC  FD8.2
013C6:  BRA    1822
013C8:  MOVLB  2
013CA:  MOVF   03,W
013CC:  BNZ   13DA
013CE:  MOVLW  15
013D0:  SUBWF  00,W
013D2:  MOVLB  0
013D4:  BTFSC  FD8.2
013D6:  BRA    1830
013D8:  MOVLB  2
013DA:  MOVF   03,W
013DC:  BNZ   13EA
013DE:  MOVLW  16
013E0:  SUBWF  00,W
013E2:  MOVLB  0
013E4:  BTFSC  FD8.2
013E6:  BRA    185E
013E8:  MOVLB  2
013EA:  MOVF   03,W
013EC:  BNZ   13FA
013EE:  MOVLW  17
013F0:  SUBWF  00,W
013F2:  MOVLB  0
013F4:  BTFSC  FD8.2
013F6:  BRA    1878
013F8:  MOVLB  2
013FA:  MOVF   03,W
013FC:  BNZ   140A
013FE:  MOVLW  18
01400:  SUBWF  00,W
01402:  MOVLB  0
01404:  BTFSC  FD8.2
01406:  BRA    1886
01408:  MOVLB  2
0140A:  MOVF   03,W
0140C:  BNZ   141A
0140E:  MOVLW  19
01410:  SUBWF  00,W
01412:  MOVLB  0
01414:  BTFSC  FD8.2
01416:  BRA    18B4
01418:  MOVLB  2
0141A:  MOVF   03,W
0141C:  BNZ   142A
0141E:  MOVLW  1A
01420:  SUBWF  00,W
01422:  MOVLB  0
01424:  BTFSC  FD8.2
01426:  BRA    18CE
01428:  MOVLB  2
0142A:  MOVF   03,W
0142C:  BNZ   143A
0142E:  MOVLW  1B
01430:  SUBWF  00,W
01432:  MOVLB  0
01434:  BTFSC  FD8.2
01436:  BRA    18DC
01438:  MOVLB  2
0143A:  MOVF   03,W
0143C:  BNZ   144A
0143E:  MOVLW  1C
01440:  SUBWF  00,W
01442:  MOVLB  0
01444:  BTFSC  FD8.2
01446:  BRA    190A
01448:  MOVLB  2
0144A:  MOVF   03,W
0144C:  BNZ   145A
0144E:  MOVLW  1D
01450:  SUBWF  00,W
01452:  MOVLB  0
01454:  BTFSC  FD8.2
01456:  BRA    1924
01458:  MOVLB  2
0145A:  MOVF   03,W
0145C:  BNZ   146A
0145E:  MOVLW  1E
01460:  SUBWF  00,W
01462:  MOVLB  0
01464:  BTFSC  FD8.2
01466:  BRA    1932
01468:  MOVLB  2
0146A:  MOVF   03,W
0146C:  BNZ   147A
0146E:  MOVLW  1F
01470:  SUBWF  00,W
01472:  MOVLB  0
01474:  BTFSC  FD8.2
01476:  BRA    1960
01478:  MOVLB  2
0147A:  MOVF   03,W
0147C:  BNZ   148A
0147E:  MOVLW  20
01480:  SUBWF  00,W
01482:  MOVLB  0
01484:  BTFSC  FD8.2
01486:  BRA    197A
01488:  MOVLB  2
0148A:  MOVF   03,W
0148C:  BNZ   149A
0148E:  MOVLW  21
01490:  SUBWF  00,W
01492:  MOVLB  0
01494:  BTFSC  FD8.2
01496:  BRA    1988
01498:  MOVLB  2
0149A:  MOVF   03,W
0149C:  BNZ   14AA
0149E:  MOVLW  22
014A0:  SUBWF  00,W
014A2:  MOVLB  0
014A4:  BTFSC  FD8.2
014A6:  BRA    19B6
014A8:  MOVLB  2
014AA:  MOVF   03,W
014AC:  BNZ   14BA
014AE:  MOVLW  23
014B0:  SUBWF  00,W
014B2:  MOVLB  0
014B4:  BTFSC  FD8.2
014B6:  BRA    19D0
014B8:  MOVLB  2
014BA:  MOVF   03,W
014BC:  BNZ   14CA
014BE:  MOVLW  24
014C0:  SUBWF  00,W
014C2:  MOVLB  0
014C4:  BTFSC  FD8.2
014C6:  BRA    19DE
014C8:  MOVLB  2
014CA:  MOVF   03,W
014CC:  BNZ   14DA
014CE:  MOVLW  25
014D0:  SUBWF  00,W
014D2:  MOVLB  0
014D4:  BTFSC  FD8.2
014D6:  BRA    1A0C
014D8:  MOVLB  2
014DA:  MOVF   03,W
014DC:  BNZ   14EA
014DE:  MOVLW  26
014E0:  SUBWF  00,W
014E2:  MOVLB  0
014E4:  BTFSC  FD8.2
014E6:  BRA    1A26
014E8:  MOVLB  2
014EA:  MOVF   03,W
014EC:  BNZ   14FA
014EE:  MOVLW  27
014F0:  SUBWF  00,W
014F2:  MOVLB  0
014F4:  BTFSC  FD8.2
014F6:  BRA    1A34
014F8:  MOVLB  2
014FA:  MOVF   03,W
014FC:  BNZ   150A
014FE:  MOVLW  28
01500:  SUBWF  00,W
01502:  MOVLB  0
01504:  BTFSC  FD8.2
01506:  BRA    1A62
01508:  MOVLB  2
0150A:  MOVF   03,W
0150C:  BNZ   151A
0150E:  MOVLW  29
01510:  SUBWF  00,W
01512:  MOVLB  0
01514:  BTFSC  FD8.2
01516:  BRA    1A7C
01518:  MOVLB  2
0151A:  MOVF   03,W
0151C:  BNZ   152A
0151E:  MOVLW  2A
01520:  SUBWF  00,W
01522:  MOVLB  0
01524:  BTFSC  FD8.2
01526:  BRA    1A8A
01528:  MOVLB  2
0152A:  MOVF   03,W
0152C:  BNZ   153A
0152E:  MOVLW  2B
01530:  SUBWF  00,W
01532:  MOVLB  0
01534:  BTFSC  FD8.2
01536:  BRA    1AA4
01538:  MOVLB  2
0153A:  MOVF   03,W
0153C:  BNZ   154A
0153E:  MOVLW  2C
01540:  SUBWF  00,W
01542:  MOVLB  0
01544:  BTFSC  FD8.2
01546:  BRA    1AB4
01548:  MOVLB  2
0154A:  MOVF   03,W
0154C:  BNZ   155A
0154E:  MOVLW  2D
01550:  SUBWF  00,W
01552:  MOVLB  0
01554:  BTFSC  FD8.2
01556:  BRA    1AC4
01558:  MOVLB  2
0155A:  MOVF   03,W
0155C:  BNZ   156A
0155E:  MOVLW  2E
01560:  SUBWF  00,W
01562:  MOVLB  0
01564:  BTFSC  FD8.2
01566:  BRA    1AD4
01568:  MOVLB  2
0156A:  MOVF   03,W
0156C:  BNZ   157A
0156E:  MOVLW  2F
01570:  SUBWF  00,W
01572:  MOVLB  0
01574:  BTFSC  FD8.2
01576:  BRA    1AE4
01578:  MOVLB  2
0157A:  MOVF   03,W
0157C:  BNZ   158A
0157E:  MOVLW  30
01580:  SUBWF  00,W
01582:  MOVLB  0
01584:  BTFSC  FD8.2
01586:  BRA    1AF4
01588:  MOVLB  2
0158A:  MOVF   03,W
0158C:  BNZ   159A
0158E:  MOVLW  31
01590:  SUBWF  00,W
01592:  MOVLB  0
01594:  BTFSC  FD8.2
01596:  BRA    1B04
01598:  MOVLB  2
0159A:  MOVF   03,W
0159C:  BNZ   15AA
0159E:  MOVLW  32
015A0:  SUBWF  00,W
015A2:  MOVLB  0
015A4:  BTFSC  FD8.2
015A6:  BRA    1B14
015A8:  MOVLB  2
015AA:  MOVF   03,W
015AC:  BNZ   15BA
015AE:  MOVLW  33
015B0:  SUBWF  00,W
015B2:  MOVLB  0
015B4:  BTFSC  FD8.2
015B6:  BRA    1B24
015B8:  MOVLB  2
015BA:  MOVLW  03
015BC:  SUBWF  03,W
015BE:  BNZ   15CC
015C0:  MOVLW  E8
015C2:  SUBWF  00,W
015C4:  MOVLB  0
015C6:  BTFSC  FD8.2
015C8:  BRA    1B34
015CA:  MOVLB  2
015CC:  MOVLW  03
015CE:  SUBWF  03,W
015D0:  BNZ   15DE
015D2:  MOVLW  E9
015D4:  SUBWF  00,W
015D6:  MOVLB  0
015D8:  BTFSC  FD8.2
015DA:  BRA    1B44
015DC:  MOVLB  2
015DE:  MOVLW  03
015E0:  SUBWF  03,W
015E2:  BNZ   15F0
015E4:  MOVLW  EA
015E6:  SUBWF  00,W
015E8:  MOVLB  0
015EA:  BTFSC  FD8.2
015EC:  BRA    1B52
015EE:  MOVLB  2
015F0:  MOVLW  03
015F2:  SUBWF  03,W
015F4:  BNZ   1602
015F6:  MOVLW  EB
015F8:  SUBWF  00,W
015FA:  MOVLB  0
015FC:  BTFSC  FD8.2
015FE:  BRA    1B60
01600:  MOVLB  2
01602:  MOVLW  03
01604:  SUBWF  03,W
01606:  BNZ   1614
01608:  MOVLW  EC
0160A:  SUBWF  00,W
0160C:  MOVLB  0
0160E:  BTFSC  FD8.2
01610:  BRA    1B6E
01612:  MOVLB  2
01614:  MOVLW  03
01616:  SUBWF  03,W
01618:  BNZ   1626
0161A:  MOVLW  ED
0161C:  SUBWF  00,W
0161E:  MOVLB  0
01620:  BTFSC  FD8.2
01622:  BRA    1B7C
01624:  MOVLB  2
01626:  MOVLW  03
01628:  SUBWF  03,W
0162A:  BNZ   1638
0162C:  MOVLW  EE
0162E:  SUBWF  00,W
01630:  MOVLB  0
01632:  BTFSC  FD8.2
01634:  BRA    1B8A
01636:  MOVLB  2
01638:  MOVLW  03
0163A:  SUBWF  03,W
0163C:  BNZ   164A
0163E:  MOVLW  EF
01640:  SUBWF  00,W
01642:  MOVLB  0
01644:  BTFSC  FD8.2
01646:  BRA    1B9A
01648:  MOVLB  2
0164A:  MOVLW  03
0164C:  SUBWF  03,W
0164E:  BNZ   165C
01650:  MOVLW  F0
01652:  SUBWF  00,W
01654:  MOVLB  0
01656:  BTFSC  FD8.2
01658:  BRA    1BA8
0165A:  MOVLB  2
0165C:  MOVLW  03
0165E:  SUBWF  03,W
01660:  BNZ   166E
01662:  MOVLW  F1
01664:  SUBWF  00,W
01666:  MOVLB  0
01668:  BTFSC  FD8.2
0166A:  BRA    1BB8
0166C:  MOVLB  2
0166E:  MOVLW  03
01670:  SUBWF  03,W
01672:  BNZ   1680
01674:  MOVLW  F2
01676:  SUBWF  00,W
01678:  MOVLB  0
0167A:  BTFSC  FD8.2
0167C:  BRA    1BC6
0167E:  MOVLB  2
01680:  MOVLW  03
01682:  SUBWF  03,W
01684:  BNZ   1692
01686:  MOVLW  F3
01688:  SUBWF  00,W
0168A:  MOVLB  0
0168C:  BTFSC  FD8.2
0168E:  BRA    1BD4
01690:  MOVLB  2
01692:  BRA    1BE2
.................... 		/* counters */ 
.................... 		case 0:  return (int16) current.pulse_count[0]; 
01694:  MOVFF  5F,01
01698:  MOVFF  60,02
0169C:  MOVLB  2
0169E:  BRA    1BEA
016A0:  MOVLB  0
.................... 		case 1:  return (int16) current.pulse_period[0]; 
016A2:  MOVF   4D,W
016A4:  MOVWF  01
016A6:  MOVF   4E,W
016A8:  MOVWF  02
016AA:  MOVLB  2
016AC:  BRA    1BEA
016AE:  MOVLB  0
.................... 		case 2:  return (int16) current.pulse_min_period[0]; 
016B0:  MOVF   53,W
016B2:  MOVWF  01
016B4:  MOVF   54,W
016B6:  MOVWF  02
016B8:  MOVLB  2
016BA:  BRA    1BEA
016BC:  MOVLB  0
.................... 		case 3:  return (int16) current.pulse_max_period[0]; 
016BE:  MOVF   59,W
016C0:  MOVWF  01
016C2:  MOVF   5A,W
016C4:  MOVWF  02
016C6:  MOVLB  2
016C8:  BRA    1BEA
016CA:  MOVLB  0
.................... 		case 4:  ps.word=get_pulse_sum(0); return (int16) ps.l[0]; 
016CC:  MOVLB  2
016CE:  CLRF   xDA
016D0:  MOVLB  0
016D2:  RCALL  1142
016D4:  MOVFF  03,2BA
016D8:  MOVFF  02,2B9
016DC:  MOVFF  01,2B8
016E0:  MOVFF  00,2B7
016E4:  MOVLB  2
016E6:  MOVF   xB7,W
016E8:  MOVWF  01
016EA:  MOVF   xB8,W
016EC:  MOVWF  02
016EE:  BRA    1BEA
016F0:  MOVLB  0
.................... 		case 5:  return (int16) ps.l[1]; 
016F2:  MOVLB  2
016F4:  MOVF   xB9,W
016F6:  MOVWF  01
016F8:  MOVF   xBA,W
016FA:  MOVWF  02
016FC:  BRA    1BEA
016FE:  MOVLB  0
....................  
.................... 		case 6:  return (int16) current.pulse_count[1]; 
01700:  MOVF   x61,W
01702:  MOVWF  01
01704:  MOVF   x62,W
01706:  MOVWF  02
01708:  MOVLB  2
0170A:  BRA    1BEA
0170C:  MOVLB  0
.................... 		case 7:  return (int16) current.pulse_period[1]; 
0170E:  MOVF   4F,W
01710:  MOVWF  01
01712:  MOVF   50,W
01714:  MOVWF  02
01716:  MOVLB  2
01718:  BRA    1BEA
0171A:  MOVLB  0
.................... 		case 8:  return (int16) current.pulse_min_period[1]; 
0171C:  MOVF   55,W
0171E:  MOVWF  01
01720:  MOVF   56,W
01722:  MOVWF  02
01724:  MOVLB  2
01726:  BRA    1BEA
01728:  MOVLB  0
.................... 		case 9:  return (int16) current.pulse_max_period[1]; 
0172A:  MOVF   5B,W
0172C:  MOVWF  01
0172E:  MOVF   5C,W
01730:  MOVWF  02
01732:  MOVLB  2
01734:  BRA    1BEA
01736:  MOVLB  0
.................... 		case 10: ps.word=get_pulse_sum(1); return (int16) ps.l[0]; 
01738:  MOVLW  01
0173A:  MOVLB  2
0173C:  MOVWF  xDA
0173E:  MOVLB  0
01740:  RCALL  1142
01742:  MOVFF  03,2BA
01746:  MOVFF  02,2B9
0174A:  MOVFF  01,2B8
0174E:  MOVFF  00,2B7
01752:  MOVLB  2
01754:  MOVF   xB7,W
01756:  MOVWF  01
01758:  MOVF   xB8,W
0175A:  MOVWF  02
0175C:  BRA    1BEA
0175E:  MOVLB  0
.................... 		case 11: return (int16) ps.l[1]; 
01760:  MOVLB  2
01762:  MOVF   xB9,W
01764:  MOVWF  01
01766:  MOVF   xBA,W
01768:  MOVWF  02
0176A:  BRA    1BEA
0176C:  MOVLB  0
....................  
....................  
.................... 		case 12: return (int16) current.pulse_count[2]; 
0176E:  MOVF   x63,W
01770:  MOVWF  01
01772:  MOVF   x64,W
01774:  MOVWF  02
01776:  MOVLB  2
01778:  BRA    1BEA
0177A:  MOVLB  0
.................... 		case 13: return (int16) current.pulse_period[2]; 
0177C:  MOVF   51,W
0177E:  MOVWF  01
01780:  MOVF   52,W
01782:  MOVWF  02
01784:  MOVLB  2
01786:  BRA    1BEA
01788:  MOVLB  0
.................... 		case 14: return (int16) current.pulse_min_period[2]; 
0178A:  MOVF   57,W
0178C:  MOVWF  01
0178E:  MOVF   58,W
01790:  MOVWF  02
01792:  MOVLB  2
01794:  BRA    1BEA
01796:  MOVLB  0
.................... 		case 15: return (int16) current.pulse_max_period[2]; 
01798:  MOVF   5D,W
0179A:  MOVWF  01
0179C:  MOVF   5E,W
0179E:  MOVWF  02
017A0:  MOVLB  2
017A2:  BRA    1BEA
017A4:  MOVLB  0
.................... 		case 16: ps.word=get_pulse_sum(2); return (int16) ps.l[0]; 
017A6:  MOVLW  02
017A8:  MOVLB  2
017AA:  MOVWF  xDA
017AC:  MOVLB  0
017AE:  RCALL  1142
017B0:  MOVFF  03,2BA
017B4:  MOVFF  02,2B9
017B8:  MOVFF  01,2B8
017BC:  MOVFF  00,2B7
017C0:  MOVLB  2
017C2:  MOVF   xB7,W
017C4:  MOVWF  01
017C6:  MOVF   xB8,W
017C8:  MOVWF  02
017CA:  BRA    1BEA
017CC:  MOVLB  0
.................... 		case 17: return (int16) ps.l[1]; 
017CE:  MOVLB  2
017D0:  MOVF   xB9,W
017D2:  MOVWF  01
017D4:  MOVF   xBA,W
017D6:  MOVWF  02
017D8:  BRA    1BEA
017DA:  MOVLB  0
....................  
....................  
.................... 		/* analog channels */ 
.................... 		/* input voltage */ 
.................... 		case 18: return (int16) current.adc_buffer[0][current.adc_buffer_index]; 
017DC:  CLRF   03
017DE:  MOVLB  1
017E0:  MOVF   x81,W
017E2:  MOVWF  02
017E4:  BCF    FD8.0
017E6:  RLCF   02,F
017E8:  RLCF   03,F
017EA:  MOVF   02,W
017EC:  ADDLW  81
017EE:  MOVWF  FE9
017F0:  MOVLW  00
017F2:  ADDWFC 03,W
017F4:  MOVWF  FEA
017F6:  MOVFF  FEC,03
017FA:  MOVF   FED,F
017FC:  MOVF   FEF,W
017FE:  MOVWF  01
01800:  MOVF   03,W
01802:  MOVWF  02
01804:  MOVLB  2
01806:  BRA    1BEA
01808:  MOVLB  0
.................... 		case 19: return (int16) adc_get(0); 
0180A:  MOVLB  2
0180C:  CLRF   xDA
0180E:  MOVLB  0
01810:  CALL   0DF8
01814:  MOVF   01,W
01816:  MOVWF  01
01818:  MOVF   02,W
0181A:  MOVWF  02
0181C:  MOVLB  2
0181E:  BRA    1BEA
01820:  MOVLB  0
.................... 		case 20: return (int16) current.adc_std_dev[0]; 
01822:  MOVF   x71,W
01824:  MOVWF  01
01826:  MOVF   x72,W
01828:  MOVWF  02
0182A:  MOVLB  2
0182C:  BRA    1BEA
0182E:  MOVLB  0
.................... 		/* wind dir 0 */ 
.................... 		case 21: return (int16) current.adc_buffer[1][current.adc_buffer_index]; 
01830:  CLRF   03
01832:  MOVLB  1
01834:  MOVF   x81,W
01836:  MOVWF  02
01838:  BCF    FD8.0
0183A:  RLCF   02,F
0183C:  RLCF   03,F
0183E:  MOVF   02,W
01840:  ADDLW  A1
01842:  MOVWF  FE9
01844:  MOVLW  00
01846:  ADDWFC 03,W
01848:  MOVWF  FEA
0184A:  MOVFF  FEC,03
0184E:  MOVF   FED,F
01850:  MOVF   FEF,W
01852:  MOVWF  01
01854:  MOVF   03,W
01856:  MOVWF  02
01858:  MOVLB  2
0185A:  BRA    1BEA
0185C:  MOVLB  0
.................... 		case 22: return (int16) adc_get(1); 
0185E:  MOVLW  01
01860:  MOVLB  2
01862:  MOVWF  xDA
01864:  MOVLB  0
01866:  CALL   0DF8
0186A:  MOVF   01,W
0186C:  MOVWF  01
0186E:  MOVF   02,W
01870:  MOVWF  02
01872:  MOVLB  2
01874:  BRA    1BEA
01876:  MOVLB  0
.................... 		case 23: return (int16) current.adc_std_dev[1]; 
01878:  MOVF   x73,W
0187A:  MOVWF  01
0187C:  MOVF   x74,W
0187E:  MOVWF  02
01880:  MOVLB  2
01882:  BRA    1BEA
01884:  MOVLB  0
.................... 		/* wind dir 1 */ 
.................... 		case 24: return (int16) current.adc_buffer[2][current.adc_buffer_index]; 
01886:  CLRF   03
01888:  MOVLB  1
0188A:  MOVF   x81,W
0188C:  MOVWF  02
0188E:  BCF    FD8.0
01890:  RLCF   02,F
01892:  RLCF   03,F
01894:  MOVF   02,W
01896:  ADDLW  C1
01898:  MOVWF  FE9
0189A:  MOVLW  00
0189C:  ADDWFC 03,W
0189E:  MOVWF  FEA
018A0:  MOVFF  FEC,03
018A4:  MOVF   FED,F
018A6:  MOVF   FEF,W
018A8:  MOVWF  01
018AA:  MOVF   03,W
018AC:  MOVWF  02
018AE:  MOVLB  2
018B0:  BRA    1BEA
018B2:  MOVLB  0
.................... 		case 25: return (int16) adc_get(2); 
018B4:  MOVLW  02
018B6:  MOVLB  2
018B8:  MOVWF  xDA
018BA:  MOVLB  0
018BC:  CALL   0DF8
018C0:  MOVF   01,W
018C2:  MOVWF  01
018C4:  MOVF   02,W
018C6:  MOVWF  02
018C8:  MOVLB  2
018CA:  BRA    1BEA
018CC:  MOVLB  0
.................... 		case 26: return (int16) current.adc_std_dev[2]; 
018CE:  MOVF   x75,W
018D0:  MOVWF  01
018D2:  MOVF   x76,W
018D4:  MOVWF  02
018D6:  MOVLB  2
018D8:  BRA    1BEA
018DA:  MOVLB  0
.................... 		/* temperature */ 
.................... 		case 27: return (int16) current.adc_buffer[3][current.adc_buffer_index]; 
018DC:  CLRF   03
018DE:  MOVLB  1
018E0:  MOVF   x81,W
018E2:  MOVWF  02
018E4:  BCF    FD8.0
018E6:  RLCF   02,F
018E8:  RLCF   03,F
018EA:  MOVF   02,W
018EC:  ADDLW  E1
018EE:  MOVWF  FE9
018F0:  MOVLW  00
018F2:  ADDWFC 03,W
018F4:  MOVWF  FEA
018F6:  MOVFF  FEC,03
018FA:  MOVF   FED,F
018FC:  MOVF   FEF,W
018FE:  MOVWF  01
01900:  MOVF   03,W
01902:  MOVWF  02
01904:  MOVLB  2
01906:  BRA    1BEA
01908:  MOVLB  0
.................... 		case 28: return (int16) adc_get(3); 
0190A:  MOVLW  03
0190C:  MOVLB  2
0190E:  MOVWF  xDA
01910:  MOVLB  0
01912:  CALL   0DF8
01916:  MOVF   01,W
01918:  MOVWF  01
0191A:  MOVF   02,W
0191C:  MOVWF  02
0191E:  MOVLB  2
01920:  BRA    1BEA
01922:  MOVLB  0
.................... 		case 29: return (int16) current.adc_std_dev[3]; 
01924:  MOVF   x77,W
01926:  MOVWF  01
01928:  MOVF   x78,W
0192A:  MOVWF  02
0192C:  MOVLB  2
0192E:  BRA    1BEA
01930:  MOVLB  0
.................... 		/* user ADC 0 to 3 */ 
.................... 		case 30: return (int16) current.adc_buffer[4][current.adc_buffer_index]; 
01932:  CLRF   03
01934:  MOVLB  1
01936:  MOVF   x81,W
01938:  MOVWF  02
0193A:  BCF    FD8.0
0193C:  RLCF   02,F
0193E:  RLCF   03,F
01940:  MOVF   02,W
01942:  ADDLW  01
01944:  MOVWF  FE9
01946:  MOVLW  01
01948:  ADDWFC 03,W
0194A:  MOVWF  FEA
0194C:  MOVFF  FEC,03
01950:  MOVF   FED,F
01952:  MOVF   FEF,W
01954:  MOVWF  01
01956:  MOVF   03,W
01958:  MOVWF  02
0195A:  MOVLB  2
0195C:  BRA    1BEA
0195E:  MOVLB  0
.................... 		case 31: return (int16) adc_get(4); 
01960:  MOVLW  04
01962:  MOVLB  2
01964:  MOVWF  xDA
01966:  MOVLB  0
01968:  CALL   0DF8
0196C:  MOVF   01,W
0196E:  MOVWF  01
01970:  MOVF   02,W
01972:  MOVWF  02
01974:  MOVLB  2
01976:  BRA    1BEA
01978:  MOVLB  0
.................... 		case 32: return (int16) current.adc_std_dev[4]; 
0197A:  MOVF   x79,W
0197C:  MOVWF  01
0197E:  MOVF   x7A,W
01980:  MOVWF  02
01982:  MOVLB  2
01984:  BRA    1BEA
01986:  MOVLB  0
....................  
.................... 		case 33: return (int16) current.adc_buffer[5][current.adc_buffer_index]; 
01988:  CLRF   03
0198A:  MOVLB  1
0198C:  MOVF   x81,W
0198E:  MOVWF  02
01990:  BCF    FD8.0
01992:  RLCF   02,F
01994:  RLCF   03,F
01996:  MOVF   02,W
01998:  ADDLW  21
0199A:  MOVWF  FE9
0199C:  MOVLW  01
0199E:  ADDWFC 03,W
019A0:  MOVWF  FEA
019A2:  MOVFF  FEC,03
019A6:  MOVF   FED,F
019A8:  MOVF   FEF,W
019AA:  MOVWF  01
019AC:  MOVF   03,W
019AE:  MOVWF  02
019B0:  MOVLB  2
019B2:  BRA    1BEA
019B4:  MOVLB  0
.................... 		case 34: return (int16) adc_get(5); 
019B6:  MOVLW  05
019B8:  MOVLB  2
019BA:  MOVWF  xDA
019BC:  MOVLB  0
019BE:  CALL   0DF8
019C2:  MOVF   01,W
019C4:  MOVWF  01
019C6:  MOVF   02,W
019C8:  MOVWF  02
019CA:  MOVLB  2
019CC:  BRA    1BEA
019CE:  MOVLB  0
.................... 		case 35: return (int16) current.adc_std_dev[5]; 
019D0:  MOVF   x7B,W
019D2:  MOVWF  01
019D4:  MOVF   x7C,W
019D6:  MOVWF  02
019D8:  MOVLB  2
019DA:  BRA    1BEA
019DC:  MOVLB  0
....................  
.................... 		case 36: return (int16) current.adc_buffer[6][current.adc_buffer_index]; 
019DE:  CLRF   03
019E0:  MOVLB  1
019E2:  MOVF   x81,W
019E4:  MOVWF  02
019E6:  BCF    FD8.0
019E8:  RLCF   02,F
019EA:  RLCF   03,F
019EC:  MOVF   02,W
019EE:  ADDLW  41
019F0:  MOVWF  FE9
019F2:  MOVLW  01
019F4:  ADDWFC 03,W
019F6:  MOVWF  FEA
019F8:  MOVFF  FEC,03
019FC:  MOVF   FED,F
019FE:  MOVF   FEF,W
01A00:  MOVWF  01
01A02:  MOVF   03,W
01A04:  MOVWF  02
01A06:  MOVLB  2
01A08:  BRA    1BEA
01A0A:  MOVLB  0
.................... 		case 37: return (int16) adc_get(6); 
01A0C:  MOVLW  06
01A0E:  MOVLB  2
01A10:  MOVWF  xDA
01A12:  MOVLB  0
01A14:  CALL   0DF8
01A18:  MOVF   01,W
01A1A:  MOVWF  01
01A1C:  MOVF   02,W
01A1E:  MOVWF  02
01A20:  MOVLB  2
01A22:  BRA    1BEA
01A24:  MOVLB  0
.................... 		case 38: return (int16) current.adc_std_dev[6]; 
01A26:  MOVF   x7D,W
01A28:  MOVWF  01
01A2A:  MOVF   x7E,W
01A2C:  MOVWF  02
01A2E:  MOVLB  2
01A30:  BRA    1BEA
01A32:  MOVLB  0
....................  
.................... 		case 39: return (int16) current.adc_buffer[7][current.adc_buffer_index]; 
01A34:  CLRF   03
01A36:  MOVLB  1
01A38:  MOVF   x81,W
01A3A:  MOVWF  02
01A3C:  BCF    FD8.0
01A3E:  RLCF   02,F
01A40:  RLCF   03,F
01A42:  MOVF   02,W
01A44:  ADDLW  61
01A46:  MOVWF  FE9
01A48:  MOVLW  01
01A4A:  ADDWFC 03,W
01A4C:  MOVWF  FEA
01A4E:  MOVFF  FEC,03
01A52:  MOVF   FED,F
01A54:  MOVF   FEF,W
01A56:  MOVWF  01
01A58:  MOVF   03,W
01A5A:  MOVWF  02
01A5C:  MOVLB  2
01A5E:  BRA    1BEA
01A60:  MOVLB  0
.................... 		case 40: return (int16) adc_get(7); 
01A62:  MOVLW  07
01A64:  MOVLB  2
01A66:  MOVWF  xDA
01A68:  MOVLB  0
01A6A:  CALL   0DF8
01A6E:  MOVF   01,W
01A70:  MOVWF  01
01A72:  MOVF   02,W
01A74:  MOVWF  02
01A76:  MOVLB  2
01A78:  BRA    1BEA
01A7A:  MOVLB  0
.................... 		case 41: return (int16) current.adc_std_dev[7]; 
01A7C:  MOVF   x7F,W
01A7E:  MOVWF  01
01A80:  MOVF   x80,W
01A82:  MOVWF  02
01A84:  MOVLB  2
01A86:  BRA    1BEA
01A88:  MOVLB  0
....................  
.................... 		/* status */ 
.................... 		case 42: return (int16) current.sequence_number++; 
01A8A:  MOVLB  1
01A8C:  MOVF   x89,W
01A8E:  MOVWF  03
01A90:  MOVF   x88,W
01A92:  INCF   x88,F
01A94:  BTFSC  FD8.2
01A96:  INCF   x89,F
01A98:  MOVWF  01
01A9A:  MOVF   03,W
01A9C:  MOVWF  02
01A9E:  MOVLB  2
01AA0:  BRA    1BEA
01AA2:  MOVLB  0
.................... 		case 43: return (int16) current.interval_milliseconds; /* milliseconds since last query */ 
01AA4:  MOVLB  1
01AA6:  MOVF   x8C,W
01AA8:  MOVWF  01
01AAA:  MOVF   x8D,W
01AAC:  MOVWF  02
01AAE:  MOVLB  2
01AB0:  BRA    1BEA
01AB2:  MOVLB  0
.................... 		case 44: return (int16) current.uptime_minutes;  
01AB4:  MOVLB  1
01AB6:  MOVF   x8A,W
01AB8:  MOVWF  01
01ABA:  MOVF   x8B,W
01ABC:  MOVWF  02
01ABE:  MOVLB  2
01AC0:  BRA    1BEA
01AC2:  MOVLB  0
.................... 		case 45: return (int16) current.watchdog_seconds;  
01AC4:  MOVLB  1
01AC6:  MOVF   x90,W
01AC8:  MOVWF  01
01ACA:  MOVF   x91,W
01ACC:  MOVWF  02
01ACE:  MOVLB  2
01AD0:  BRA    1BEA
01AD2:  MOVLB  0
....................  
.................... 		/* triggers a new measurement */ 
.................... 		case 46: reset_counters(); return (int16) 0; 
01AD4:  GOTO   11A4
01AD8:  MOVLW  00
01ADA:  MOVWF  01
01ADC:  MOVWF  02
01ADE:  MOVLB  2
01AE0:  BRA    1BEA
01AE2:  MOVLB  0
.................... 		/* triggers a reset of pulse sum */ 
.................... 		case 47: reset_pulse_sum(); return (int16) 0; 
01AE4:  GOTO   11E0
01AE8:  MOVLW  00
01AEA:  MOVWF  01
01AEC:  MOVWF  02
01AEE:  MOVLB  2
01AF0:  BRA    1BEA
01AF2:  MOVLB  0
.................... 		/* modbus statistics */ 
.................... 		case 48: return (int16) current.modbus_our_packets; 
01AF4:  MOVLB  1
01AF6:  MOVF   x82,W
01AF8:  MOVWF  01
01AFA:  MOVF   x83,W
01AFC:  MOVWF  02
01AFE:  MOVLB  2
01B00:  BRA    1BEA
01B02:  MOVLB  0
.................... 		case 49: return (int16) current.modbus_other_packets; 
01B04:  MOVLB  1
01B06:  MOVF   x84,W
01B08:  MOVWF  01
01B0A:  MOVF   x85,W
01B0C:  MOVWF  02
01B0E:  MOVLB  2
01B10:  BRA    1BEA
01B12:  MOVLB  0
.................... 		case 50: return (int16) current.modbus_last_error; 
01B14:  MOVLB  1
01B16:  MOVF   x86,W
01B18:  MOVWF  01
01B1A:  MOVF   x87,W
01B1C:  MOVWF  02
01B1E:  MOVLB  2
01B20:  BRA    1BEA
01B22:  MOVLB  0
.................... 		/* triggers a modbus statistics reset */ 
.................... 		case 51: reset_modbus_stats(); return (int16) 0; 
01B24:  GOTO   1208
01B28:  MOVLW  00
01B2A:  MOVWF  01
01B2C:  MOVWF  02
01B2E:  MOVLB  2
01B30:  BRA    1BEA
01B32:  MOVLB  0
....................  
.................... 		/* configuration */ 
.................... //		case 1000: return (int16) input(BUTTON); 
.................... //		case 1000: return (int16) modbus_rx.len; 
.................... 		case 1000: return (int16) config.serial_prefix; 
01B34:  CLRF   03
01B36:  MOVF   38,W
01B38:  MOVWF  01
01B3A:  MOVF   03,W
01B3C:  MOVWF  02
01B3E:  MOVLB  2
01B40:  BRA    1BEA
01B42:  MOVLB  0
.................... 		case 1001: return (int16) config.serial_number; 
01B44:  MOVF   39,W
01B46:  MOVWF  01
01B48:  MOVF   3A,W
01B4A:  MOVWF  02
01B4C:  MOVLB  2
01B4E:  BRA    1BEA
01B50:  MOVLB  0
.................... 		case 1002: return (int16) 'P'; 
01B52:  MOVLW  50
01B54:  MOVWF  01
01B56:  MOVLW  00
01B58:  MOVWF  02
01B5A:  MOVLB  2
01B5C:  BRA    1BEA
01B5E:  MOVLB  0
.................... 		case 1003: return (int16) 'W'; 
01B60:  MOVLW  57
01B62:  MOVWF  01
01B64:  MOVLW  00
01B66:  MOVWF  02
01B68:  MOVLB  2
01B6A:  BRA    1BEA
01B6C:  MOVLB  0
.................... 		case 1004: return (int16) 'X'; 
01B6E:  MOVLW  58
01B70:  MOVWF  01
01B72:  MOVLW  00
01B74:  MOVWF  02
01B76:  MOVLB  2
01B78:  BRA    1BEA
01B7A:  MOVLB  0
.................... 		case 1005: return (int16) 1; 
01B7C:  MOVLW  01
01B7E:  MOVWF  01
01B80:  MOVLW  00
01B82:  MOVWF  02
01B84:  MOVLB  2
01B86:  BRA    1BEA
01B88:  MOVLB  0
.................... 		case 1006: return (int16) config.modbus_address; 
01B8A:  CLRF   03
01B8C:  MOVF   36,W
01B8E:  MOVWF  01
01B90:  MOVF   03,W
01B92:  MOVWF  02
01B94:  MOVLB  2
01B96:  BRA    1BEA
01B98:  MOVLB  0
.................... 		case 1007: return (int16) config.adc_sample_ticks; 
01B9A:  MOVF   3B,W
01B9C:  MOVWF  01
01B9E:  MOVF   3C,W
01BA0:  MOVWF  02
01BA2:  MOVLB  2
01BA4:  BRA    1BEA
01BA6:  MOVLB  0
.................... 		case 1008: return (int16) config.allow_bootload_request; 
01BA8:  CLRF   03
01BAA:  MOVF   3D,W
01BAC:  MOVWF  01
01BAE:  MOVF   03,W
01BB0:  MOVWF  02
01BB2:  MOVLB  2
01BB4:  BRA    1BEA
01BB6:  MOVLB  0
.................... 		case 1009: return (int16) config.watchdog_seconds_max; 
01BB8:  MOVF   3E,W
01BBA:  MOVWF  01
01BBC:  MOVF   3F,W
01BBE:  MOVWF  02
01BC0:  MOVLB  2
01BC2:  BRA    1BEA
01BC4:  MOVLB  0
.................... 		case 1010: return (int16) config.pi_offtime_seconds; 
01BC6:  MOVF   40,W
01BC8:  MOVWF  01
01BCA:  MOVF   41,W
01BCC:  MOVWF  02
01BCE:  MOVLB  2
01BD0:  BRA    1BEA
01BD2:  MOVLB  0
.................... 		case 1011: return (int16) config.power_startup; 
01BD4:  CLRF   03
01BD6:  MOVF   42,W
01BD8:  MOVWF  01
01BDA:  MOVF   03,W
01BDC:  MOVWF  02
01BDE:  MOVLB  2
01BE0:  BRA    1BEA
....................  
.................... 		/* we should have range checked, and never gotten here */ 
.................... 		default: return (int16) 65535; 
01BE2:  MOVLW  FF
01BE4:  MOVWF  01
01BE6:  MOVWF  02
01BE8:  BRA    1BEA
.................... 	} 
....................  
.................... } 
01BEA:  MOVLB  0
01BEC:  GOTO   1C3E (RETURN)
....................  
....................  
.................... int8 modbus_valid_read_registers(int16 start, int16 end) { 
.................... 	if ( 19999==start && 20000==end) 
*
01006:  MOVLB  2
01008:  MOVF   xCE,W
0100A:  SUBLW  1F
0100C:  BNZ   1026
0100E:  MOVF   xCF,W
01010:  SUBLW  4E
01012:  BNZ   1026
01014:  MOVF   xD0,W
01016:  SUBLW  20
01018:  BNZ   1026
0101A:  MOVF   xD1,W
0101C:  SUBLW  4E
0101E:  BNZ   1026
.................... 		return 1; 
01020:  MOVLW  01
01022:  MOVWF  01
01024:  BRA    1082
....................  
.................... 	 
.................... 	if ( start >= MIN_CONFIG_REGISTER && end <= MAX_CONFIG_REGISTER+1 ) 
01026:  MOVF   xCF,W
01028:  SUBLW  02
0102A:  BC    104A
0102C:  XORLW  FF
0102E:  BNZ   1036
01030:  MOVF   xCE,W
01032:  SUBLW  E7
01034:  BC    104A
01036:  MOVF   xD1,W
01038:  SUBLW  03
0103A:  BNC   104A
0103C:  BNZ   1044
0103E:  MOVF   xD0,W
01040:  SUBLW  F4
01042:  BNC   104A
.................... 		return 1; 
01044:  MOVLW  01
01046:  MOVWF  01
01048:  BRA    1082
....................  
.................... 	if ( start >= MIN_EE_REGISTER && end <= MAX_EE_REGISTER+1 ) 
0104A:  MOVF   xCF,W
0104C:  SUBLW  06
0104E:  BC    106E
01050:  XORLW  FF
01052:  BNZ   105A
01054:  MOVF   xCE,W
01056:  SUBLW  CF
01058:  BC    106E
0105A:  MOVF   xD1,W
0105C:  SUBLW  09
0105E:  BNC   106E
01060:  BNZ   1068
01062:  MOVF   xD0,W
01064:  SUBLW  D1
01066:  BNC   106E
.................... 		return 1; 
01068:  MOVLW  01
0106A:  MOVWF  01
0106C:  BRA    1082
.................... 	 
....................  
.................... 	/* end is always start + at least one ... so no need to test for range starting at 0 */ 
.................... 	if ( end <= MAX_STATUS_REGISTER+1) 
0106E:  MOVF   xD1,F
01070:  BNZ   107E
01072:  MOVF   xD0,W
01074:  SUBLW  34
01076:  BNC   107E
.................... 		return 1; 
01078:  MOVLW  01
0107A:  MOVWF  01
0107C:  BRA    1082
....................  
.................... 	return 0; 
0107E:  MOVLW  00
01080:  MOVWF  01
.................... } 
01082:  MOVLB  0
01084:  GOTO   1FAE (RETURN)
....................  
.................... int8 modbus_valid_write_registers(int16 start, int16 end) { 
.................... 	if ( 19999==start && 20000==end) 
.................... 		return 1; 
....................  
.................... 	if ( start >= MIN_EE_REGISTER && end <= MAX_EE_REGISTER+1 ) 
.................... 		return 1; 
....................  
.................... 	if ( start >= MIN_CONFIG_REGISTER && end <= MAX_CONFIG_REGISTER+1 ) 
.................... 		return 1; 
.................... 	 
.................... 	/* end is always start + at least one ... so no need to test for range starting at 0 */ 
.................... 	if ( end <= MAX_STATUS_REGISTER+1) 
.................... 		return 1; 
....................  
.................... 	return 0; 
.................... } 
....................  
.................... void modbus_read_register_response(function func, int8 address, int16 start_address, int16 register_count ) { 
.................... 	int16 i; 
.................... 	int16 l; 
....................  
.................... 	modbus_serial_send_start(address, func); // FUNC_READ_HOLDING_REGISTERS); 
*
01BF0:  MOVFF  2CD,2D6
01BF4:  MOVFF  2CC,2D7
01BF8:  CALL   10C6
.................... 	modbus_serial_putc(register_count*2); 
01BFC:  BCF    FD8.0
01BFE:  MOVLB  2
01C00:  RLCF   xD0,W
01C02:  MOVWF  xD6
01C04:  RLCF   xD1,W
01C06:  MOVWF  xD7
01C08:  MOVFF  2D6,2D8
01C0C:  MOVLB  0
01C0E:  CALL   1092
....................  
....................  
.................... 	for( i=0 ; i<register_count ; i++ ) { 
01C12:  MOVLB  2
01C14:  CLRF   xD3
01C16:  CLRF   xD2
01C18:  MOVF   xD3,W
01C1A:  SUBWF  xD1,W
01C1C:  BNC   1C68
01C1E:  BNZ   1C26
01C20:  MOVF   xD0,W
01C22:  SUBWF  xD2,W
01C24:  BC    1C68
.................... 		l=map_modbus(start_address+i); 
01C26:  MOVF   xD2,W
01C28:  ADDWF  xCE,W
01C2A:  MOVWF  xD6
01C2C:  MOVF   xD3,W
01C2E:  ADDWFC xCF,W
01C30:  MOVWF  xD7
01C32:  MOVWF  xD9
01C34:  MOVFF  2D6,2D8
01C38:  MOVLB  0
01C3A:  GOTO   121C
01C3E:  MOVFF  02,2D5
01C42:  MOVFF  01,2D4
.................... 		modbus_serial_putc(make8(l,1)); 
01C46:  MOVFF  2D5,2D6
01C4A:  MOVFF  2D5,2D8
01C4E:  CALL   1092
....................   		modbus_serial_putc(make8(l,0)); 
01C52:  MOVFF  2D4,2D6
01C56:  MOVFF  2D4,2D8
01C5A:  CALL   1092
.................... 	} 
01C5E:  MOVLB  2
01C60:  INCF   xD2,F
01C62:  BTFSC  FD8.2
01C64:  INCF   xD3,F
01C66:  BRA    1C18
....................  
.................... 	modbus_serial_send_stop(); 
01C68:  MOVLB  0
01C6A:  CALL   10F4
.................... } 
01C6E:  GOTO   1FF0 (RETURN)
....................  
.................... /*  
.................... try to write the specified register 
.................... if successful, return 0, otherwise return a modbus exception 
.................... */ 
.................... exception modbus_write_register(int16 address, int16 value) { 
....................  
.................... 	if ( address >= MIN_EE_REGISTER && address < MAX_EE_REGISTER ) { 
01C72:  MOVLB  2
01C74:  MOVF   xD3,W
01C76:  SUBLW  06
01C78:  BC    1CE0
01C7A:  XORLW  FF
01C7C:  BNZ   1C84
01C7E:  MOVF   xD2,W
01C80:  SUBLW  CF
01C82:  BC    1CE0
01C84:  MOVF   xD3,W
01C86:  SUBLW  09
01C88:  BNC   1CE0
01C8A:  BNZ   1C92
01C8C:  MOVF   xD2,W
01C8E:  SUBLW  CF
01C90:  BNC   1CE0
.................... 		if ( value > 256 ) return ILLEGAL_DATA_VALUE; 
01C92:  MOVF   xD5,W
01C94:  SUBLW  00
01C96:  BC    1CA8
01C98:  XORLW  FF
01C9A:  BNZ   1CA2
01C9C:  MOVF   xD4,W
01C9E:  SUBLW  00
01CA0:  BC    1CA8
01CA2:  MOVLW  03
01CA4:  MOVWF  01
01CA6:  BRA    1E9E
.................... 		write_eeprom(address,(int8) value); 
01CA8:  MOVFF  2D3,FAA
01CAC:  MOVFF  2D2,FA9
01CB0:  MOVFF  2D4,FA8
01CB4:  BCF    FA6.6
01CB6:  BCF    FA6.7
01CB8:  BSF    FA6.2
01CBA:  MOVF   FF2,W
01CBC:  MOVWF  00
01CBE:  BCF    FF2.6
01CC0:  BCF    FF2.7
01CC2:  MOVLB  F
01CC4:  MOVLW  55
01CC6:  MOVWF  FA7
01CC8:  MOVLW  AA
01CCA:  MOVWF  FA7
01CCC:  BSF    FA6.1
01CCE:  BTFSC  FA6.1
01CD0:  BRA    1CCE
01CD2:  BCF    FA6.2
01CD4:  MOVF   00,W
01CD6:  IORWF  FF2,F
.................... 		return 0; 
01CD8:  MOVLW  00
01CDA:  MOVWF  01
01CDC:  MOVLB  2
01CDE:  BRA    1E9E
.................... 	} 
....................  
.................... 	/* if we have been unlocked, then we can modify serial number */ 
.................... 	if ( current.factory_unlocked ) { 
01CE0:  MOVLB  1
01CE2:  MOVF   x8E,F
01CE4:  BZ    1D1C
.................... 		if ( 1000 == address ) { 
01CE6:  MOVLB  2
01CE8:  MOVF   xD2,W
01CEA:  SUBLW  E8
01CEC:  BNZ   1D00
01CEE:  MOVF   xD3,W
01CF0:  SUBLW  03
01CF2:  BNZ   1D00
.................... 			config.serial_prefix=value; 
01CF4:  MOVFF  2D4,38
.................... 			return 0; 
01CF8:  MOVLW  00
01CFA:  MOVWF  01
01CFC:  BRA    1E9E
.................... 		} else if ( 1001 == address ) { 
01CFE:  BRA    1D1A
01D00:  MOVF   xD2,W
01D02:  SUBLW  E9
01D04:  BNZ   1D1A
01D06:  MOVF   xD3,W
01D08:  SUBLW  03
01D0A:  BNZ   1D1A
.................... 			config.serial_number=value; 
01D0C:  MOVFF  2D5,3A
01D10:  MOVFF  2D4,39
.................... 			return 0; 
01D14:  MOVLW  00
01D16:  MOVWF  01
01D18:  BRA    1E9E
01D1A:  MOVLB  1
.................... 		} 
.................... 	} 
....................  
.................... 	/* publicly writeable addresses */ 
.................... 	switch ( address ) { 
01D1C:  MOVLB  2
01D1E:  MOVF   xD2,W
01D20:  MOVWF  00
01D22:  MOVF   xD3,W
01D24:  MOVWF  03
01D26:  MOVLW  03
01D28:  SUBWF  03,W
01D2A:  BNZ   1D36
01D2C:  MOVLW  EE
01D2E:  SUBWF  00,W
01D30:  MOVLB  0
01D32:  BZ    1DBA
01D34:  MOVLB  2
01D36:  MOVLW  03
01D38:  SUBWF  03,W
01D3A:  BNZ   1D46
01D3C:  MOVLW  EF
01D3E:  SUBWF  00,W
01D40:  MOVLB  0
01D42:  BZ    1DD2
01D44:  MOVLB  2
01D46:  MOVLW  03
01D48:  SUBWF  03,W
01D4A:  BNZ   1D56
01D4C:  MOVLW  F0
01D4E:  SUBWF  00,W
01D50:  MOVLB  0
01D52:  BZ    1DE2
01D54:  MOVLB  2
01D56:  MOVLW  03
01D58:  SUBWF  03,W
01D5A:  BNZ   1D66
01D5C:  MOVLW  F1
01D5E:  SUBWF  00,W
01D60:  MOVLB  0
01D62:  BZ    1DFA
01D64:  MOVLB  2
01D66:  MOVLW  03
01D68:  SUBWF  03,W
01D6A:  BNZ   1D76
01D6C:  MOVLW  F2
01D6E:  SUBWF  00,W
01D70:  MOVLB  0
01D72:  BZ    1E06
01D74:  MOVLB  2
01D76:  MOVLW  03
01D78:  SUBWF  03,W
01D7A:  BNZ   1D86
01D7C:  MOVLW  F3
01D7E:  SUBWF  00,W
01D80:  MOVLB  0
01D82:  BZ    1E20
01D84:  MOVLB  2
01D86:  MOVLW  07
01D88:  SUBWF  03,W
01D8A:  BNZ   1D96
01D8C:  MOVLW  CE
01D8E:  SUBWF  00,W
01D90:  MOVLB  0
01D92:  BZ    1E38
01D94:  MOVLB  2
01D96:  MOVLW  07
01D98:  SUBWF  03,W
01D9A:  BNZ   1DA6
01D9C:  MOVLW  CF
01D9E:  SUBWF  00,W
01DA0:  MOVLB  0
01DA2:  BZ    1E52
01DA4:  MOVLB  2
01DA6:  MOVLW  4E
01DA8:  SUBWF  03,W
01DAA:  BNZ   1DB8
01DAC:  MOVLW  1F
01DAE:  SUBWF  00,W
01DB0:  MOVLB  0
01DB2:  BTFSC  FD8.2
01DB4:  BRA    1E6C
01DB6:  MOVLB  2
01DB8:  BRA    1E94
.................... 			 
....................  
.................... 		case 1006: 
.................... 			/* Modbus address {0 to 127 or 128 for respond to any} */ 
.................... 			if ( value > 128 ) return ILLEGAL_DATA_VALUE; 
01DBA:  MOVLB  2
01DBC:  MOVF   xD5,F
01DBE:  BNZ   1DC6
01DC0:  MOVF   xD4,W
01DC2:  SUBLW  80
01DC4:  BC    1DCC
01DC6:  MOVLW  03
01DC8:  MOVWF  01
01DCA:  BRA    1E9E
.................... 			config.modbus_address=value; 
01DCC:  MOVFF  2D4,36
.................... 			break; 
01DD0:  BRA    1E9A
....................  
.................... 		case 1007: 
.................... 			/* ADC sample interval */ 
.................... 			timers.now_adc_reset_count=1; 
01DD2:  MOVLB  1
01DD4:  BSF    xAD.1
.................... 			config.adc_sample_ticks=value; 
01DD6:  MOVFF  2D5,3C
01DDA:  MOVFF  2D4,3B
.................... 			break; 
01DDE:  MOVLB  2
01DE0:  BRA    1E9A
....................  
.................... 		case 1008: 
.................... 			/* allow this processor to follow requests of the PIC BOOTLOAD REQUEST line to reset ourselves */ 
.................... 			if ( value > 1 ) return ILLEGAL_DATA_VALUE; 
01DE2:  MOVLB  2
01DE4:  MOVF   xD5,F
01DE6:  BNZ   1DEE
01DE8:  MOVF   xD4,W
01DEA:  SUBLW  01
01DEC:  BC    1DF4
01DEE:  MOVLW  03
01DF0:  MOVWF  01
01DF2:  BRA    1E9E
.................... 			config.allow_bootload_request=value; 
01DF4:  MOVFF  2D4,3D
.................... 			break; 
01DF8:  BRA    1E9A
....................  
.................... 		case 1009: 
.................... 			config.watchdog_seconds_max=value; 
01DFA:  MOVFF  2D5,3F
01DFE:  MOVFF  2D4,3E
.................... 			break; 
01E02:  MOVLB  2
01E04:  BRA    1E9A
....................  
.................... 		case 1010: 
.................... 			if ( value < 1 ) return ILLEGAL_DATA_VALUE; 
01E06:  MOVLB  2
01E08:  MOVF   xD4,F
01E0A:  BNZ   1E16
01E0C:  MOVF   xD5,F
01E0E:  BNZ   1E16
01E10:  MOVLW  03
01E12:  MOVWF  01
01E14:  BRA    1E9E
.................... 			config.pi_offtime_seconds=value; 
01E16:  MOVFF  2D5,41
01E1A:  MOVFF  2D4,40
.................... 			break; 
01E1E:  BRA    1E9A
.................... 		 
.................... 		case 1011: 
.................... 			if ( value > 1 ) return ILLEGAL_DATA_VALUE; 
01E20:  MOVLB  2
01E22:  MOVF   xD5,F
01E24:  BNZ   1E2C
01E26:  MOVF   xD4,W
01E28:  SUBLW  01
01E2A:  BC    1E32
01E2C:  MOVLW  03
01E2E:  MOVWF  01
01E30:  BRA    1E9E
.................... 			config.power_startup=value; 
01E32:  MOVFF  2D4,42
.................... 			break; 
01E36:  BRA    1E9A
.................... 		 
.................... 		case 1998: 
.................... 			/* write default config to EEPROM */ 
.................... 			if ( 1 != value ) return ILLEGAL_DATA_VALUE; 
01E38:  MOVLB  2
01E3A:  DECFSZ xD4,W
01E3C:  BRA    1E42
01E3E:  MOVF   xD5,F
01E40:  BZ    1E48
01E42:  MOVLW  03
01E44:  MOVWF  01
01E46:  BRA    1E9E
.................... 			write_default_param_file(); 
01E48:  MOVLB  0
01E4A:  CALL   0C02
.................... 			break; 
01E4E:  MOVLB  2
01E50:  BRA    1E9A
.................... 		case 1999: 
.................... 			/* write config to EEPROM */ 
.................... 			if ( 1 != value ) return ILLEGAL_DATA_VALUE; 
01E52:  MOVLB  2
01E54:  DECFSZ xD4,W
01E56:  BRA    1E5C
01E58:  MOVF   xD5,F
01E5A:  BZ    1E62
01E5C:  MOVLW  03
01E5E:  MOVWF  01
01E60:  BRA    1E9E
.................... 			write_param_file(); 
01E62:  MOVLB  0
01E64:  CALL   0BAE
.................... 			break; 
01E68:  MOVLB  2
01E6A:  BRA    1E9A
.................... 		case 19999: 
.................... 			/* unlock factory programming registers when we get 1802 in passcode register */ 
.................... 			if ( 1802 != value ) { 
01E6C:  MOVLB  2
01E6E:  MOVF   xD4,W
01E70:  SUBLW  0A
01E72:  BNZ   1E7A
01E74:  MOVF   xD5,W
01E76:  SUBLW  07
01E78:  BZ    1E86
.................... 				current.factory_unlocked=0; 
01E7A:  MOVLB  1
01E7C:  CLRF   x8E
.................... 				return ILLEGAL_DATA_VALUE; 
01E7E:  MOVLW  03
01E80:  MOVWF  01
01E82:  MOVLB  2
01E84:  BRA    1E9E
.................... 			} 
.................... 			current.factory_unlocked=1; 
01E86:  MOVLW  01
01E88:  MOVLB  1
01E8A:  MOVWF  x8E
.................... 			/* green LED for 2 seconds */ 
.................... 			timers.led_on_green=200; 
01E8C:  MOVLW  C8
01E8E:  MOVWF  xAA
.................... 			break; 
01E90:  MOVLB  2
01E92:  BRA    1E9A
.................... 		default: 
.................... 			return ILLEGAL_DATA_ADDRESS; 
01E94:  MOVLW  02
01E96:  MOVWF  01
01E98:  BRA    1E9E
....................  
.................... 	} 
....................  
.................... 	/* must not have triggered an exception */ 
.................... 	return 0; 
01E9A:  MOVLW  00
01E9C:  MOVWF  01
.................... } 
01E9E:  MOVLB  0
01EA0:  RETURN 0
....................  
....................  
.................... void modbus_process(void) { 
.................... 	int16 start_addr; 
.................... 	int16 num_registers; 
.................... 	exception result; 
.................... 	int8 i; 
....................  
....................  
.................... 	/* check for message */ 
.................... 	if ( modbus_kbhit() ) { 
*
01F32:  GOTO   0FE0
01F36:  MOVF   01,F
01F38:  BTFSC  FD8.2
01F3A:  BRA    2162
.................... //		output_high(TP_RED); 
....................  
.................... 		if ( 128==config.modbus_address || modbus_rx.address==config.modbus_address ) { 
01F3C:  MOVF   36,W
01F3E:  SUBLW  80
01F40:  BZ    1F4E
01F42:  MOVF   36,W
01F44:  MOVLB  1
01F46:  SUBWF  xB4,W
01F48:  BTFSS  FD8.2
01F4A:  BRA    214E
01F4C:  MOVLB  0
.................... 			/* Modbus statistics */ 
.................... 			if ( current.modbus_our_packets < 65535 ) 
01F4E:  MOVLB  1
01F50:  INCFSZ x82,W
01F52:  BRA    1F5A
01F54:  INCFSZ x83,W
01F56:  BRA    1F5A
01F58:  BRA    1F60
.................... 				current.modbus_our_packets++; 
01F5A:  INCF   x82,F
01F5C:  BTFSC  FD8.2
01F5E:  INCF   x83,F
.................... 	 
.................... 			/* green LED for 200 milliseconds */ 
.................... 			timers.led_on_green=20; 
01F60:  MOVLW  14
01F62:  MOVWF  xAA
....................  
.................... 			switch(modbus_rx.func) { 
01F64:  MOVF   xB6,W
01F66:  XORLW  03
01F68:  MOVLB  0
01F6A:  BZ    1F7C
01F6C:  XORLW  07
01F6E:  BZ    1F7C
01F70:  XORLW  02
01F72:  BZ    1FF4
01F74:  XORLW  16
01F76:  BTFSC  FD8.2
01F78:  BRA    2066
01F7A:  BRA    2128
.................... 				case FUNC_READ_HOLDING_REGISTERS: /* 3 */ 
.................... 				case FUNC_READ_INPUT_REGISTERS:   /* 4 */ 
.................... 					start_addr=make16(modbus_rx.data[0],modbus_rx.data[1]); 
01F7C:  MOVFF  1B8,2C7
01F80:  MOVFF  1B9,2C6
.................... 					num_registers=make16(modbus_rx.data[2],modbus_rx.data[3]); 
01F84:  MOVFF  1BA,2C9
01F88:  MOVFF  1BB,2C8
.................... 	 
.................... 					/* make sure our address is within range */ 
.................... 					if ( ! modbus_valid_read_registers(start_addr,start_addr+num_registers) ) { 
01F8C:  MOVLB  2
01F8E:  MOVF   xC8,W
01F90:  ADDWF  xC6,W
01F92:  MOVWF  xCC
01F94:  MOVF   xC9,W
01F96:  ADDWFC xC7,W
01F98:  MOVWF  xCD
01F9A:  MOVFF  2C7,2CF
01F9E:  MOVFF  2C6,2CE
01FA2:  MOVWF  xD1
01FA4:  MOVFF  2CC,2D0
01FA8:  MOVLB  0
01FAA:  GOTO   1006
01FAE:  MOVF   01,F
01FB0:  BNZ   1FD6
.................... 					    modbus_exception_rsp(modbus_rx.address,modbus_rx.func,ILLEGAL_DATA_ADDRESS); 
01FB2:  MOVFF  1B4,2CC
01FB6:  MOVLB  2
01FB8:  CLRF   xCE
01FBA:  MOVFF  1B6,2CD
01FBE:  MOVLW  02
01FC0:  MOVWF  xCF
01FC2:  MOVLB  0
01FC4:  CALL   1122
.................... 						current.modbus_last_error=ILLEGAL_DATA_ADDRESS; 
01FC8:  MOVLB  1
01FCA:  CLRF   x87
01FCC:  MOVLW  02
01FCE:  MOVWF  x86
....................  
.................... 						/* red LED for 1 second */ 
.................... 						timers.led_on_green=0; 
01FD0:  CLRF   xAA
.................... 					} else { 
01FD2:  BRA    1FF2
01FD4:  MOVLB  0
.................... 						modbus_read_register_response(modbus_rx.func,modbus_rx.address,start_addr,num_registers); 
01FD6:  MOVFF  1B6,2CC
01FDA:  MOVFF  1B4,2CD
01FDE:  MOVFF  2C7,2CF
01FE2:  MOVFF  2C6,2CE
01FE6:  MOVFF  2C9,2D1
01FEA:  MOVFF  2C8,2D0
01FEE:  BRA    1BF0
01FF0:  MOVLB  1
.................... 					} 
.................... 					break; 
01FF2:  BRA    2148
.................... 				case FUNC_WRITE_SINGLE_REGISTER: /* 6 */ 
.................... 					start_addr=make16(modbus_rx.data[0],modbus_rx.data[1]); 
01FF4:  MOVFF  1B8,2C7
01FF8:  MOVFF  1B9,2C6
....................  
.................... 					/* try the write */ 
.................... 					result=modbus_write_register(start_addr,make16(modbus_rx.data[2],modbus_rx.data[3])); 
01FFC:  MOVFF  1BA,2CD
02000:  MOVFF  1BB,2CC
02004:  MOVFF  2C7,2D3
02008:  MOVFF  2C6,2D2
0200C:  MOVFF  1BA,2D5
02010:  MOVFF  1BB,2D4
02014:  RCALL  1C72
02016:  MOVFF  01,2CA
....................  
.................... 					if ( result ) { 
0201A:  MOVLB  2
0201C:  MOVF   xCA,F
0201E:  BZ    2042
.................... 						/* exception */ 
.................... 						modbus_exception_rsp(modbus_rx.address,modbus_rx.func,result); 
02020:  MOVFF  1B4,2CC
02024:  CLRF   xCE
02026:  MOVFF  1B6,2CD
0202A:  MOVFF  2CA,2CF
0202E:  MOVLB  0
02030:  CALL   1122
.................... 						current.modbus_last_error=result; 
02034:  MOVLB  1
02036:  CLRF   x87
02038:  MOVFF  2CA,186
....................  
.................... 						/* red LED for 1 second */ 
.................... 						timers.led_on_green=0; 
0203C:  CLRF   xAA
.................... 					}  else { 
0203E:  BRA    2064
02040:  MOVLB  2
.................... 						/* no exception, send ack */ 
.................... 						modbus_write_single_register_rsp(modbus_rx.address, 
.................... 							start_addr, 
.................... 							make16(modbus_rx.data[2],modbus_rx.data[3]) 
.................... 						); 
02042:  MOVFF  1BA,2CD
02046:  MOVFF  1BB,2CC
0204A:  MOVFF  1B4,2CE
0204E:  MOVFF  2C7,2D0
02052:  MOVFF  2C6,2CF
02056:  MOVFF  1BA,2D2
0205A:  MOVFF  1BB,2D1
0205E:  MOVLB  0
02060:  BRA    1EA2
02062:  MOVLB  1
.................... 					} 
.................... 					break; 
02064:  BRA    2148
.................... 				case FUNC_WRITE_MULTIPLE_REGISTERS: /* 16 */ 
.................... 					start_addr=make16(modbus_rx.data[0],modbus_rx.data[1]); 
02066:  MOVFF  1B8,2C7
0206A:  MOVFF  1B9,2C6
.................... 					num_registers=make16(modbus_rx.data[2],modbus_rx.data[3]); 
0206E:  MOVFF  1BA,2C9
02072:  MOVFF  1BB,2C8
....................  
.................... 					/* attempt to write each register. Stop if exception */ 
.................... 					for ( i=0 ; i<num_registers ; i++ ) { 
02076:  MOVLB  2
02078:  CLRF   xCB
0207A:  MOVF   xC9,F
0207C:  BNZ   2084
0207E:  MOVF   xC8,W
02080:  SUBWF  xCB,W
02082:  BC    2108
.................... 						result=modbus_write_register(start_addr+i,make16(modbus_rx.data[5+i*2],modbus_rx.data[6+i*2])); 
02084:  MOVF   xCB,W
02086:  ADDWF  xC6,W
02088:  MOVWF  xCC
0208A:  MOVLW  00
0208C:  ADDWFC xC7,W
0208E:  MOVWF  xCD
02090:  BCF    FD8.0
02092:  RLCF   xCB,W
02094:  ADDLW  05
02096:  ADDLW  B8
02098:  MOVWF  FE9
0209A:  MOVLW  01
0209C:  MOVWF  FEA
0209E:  BTFSC  FD8.0
020A0:  INCF   FEA,F
020A2:  MOVFF  FEF,2CE
020A6:  BCF    FD8.0
020A8:  RLCF   xCB,W
020AA:  ADDLW  06
020AC:  ADDLW  B8
020AE:  MOVWF  FE9
020B0:  MOVLW  01
020B2:  MOVWF  FEA
020B4:  BTFSC  FD8.0
020B6:  INCF   FEA,F
020B8:  MOVFF  FEF,2CF
020BC:  MOVFF  2CE,2D1
020C0:  MOVFF  2CF,2D0
020C4:  MOVFF  2CD,2D3
020C8:  MOVFF  2CC,2D2
020CC:  MOVFF  2CE,2D5
020D0:  MOVFF  2CF,2D4
020D4:  MOVLB  0
020D6:  RCALL  1C72
020D8:  MOVFF  01,2CA
....................  
.................... 						if ( result ) { 
020DC:  MOVLB  2
020DE:  MOVF   xCA,F
020E0:  BZ    2104
.................... 							/* exception */ 
.................... 							modbus_exception_rsp(modbus_rx.address,modbus_rx.func,result); 
020E2:  MOVFF  1B4,2CC
020E6:  CLRF   xCE
020E8:  MOVFF  1B6,2CD
020EC:  MOVFF  2CA,2CF
020F0:  MOVLB  0
020F2:  CALL   1122
.................... 							current.modbus_last_error=result; 
020F6:  MOVLB  1
020F8:  CLRF   x87
020FA:  MOVFF  2CA,186
.................... 	 
.................... 							/* red LED for 1 second */ 
.................... 							timers.led_on_green=0; 
020FE:  CLRF   xAA
.................... 			 
.................... 							break; 
02100:  MOVLB  2
02102:  BRA    2108
.................... 						} 
.................... 					} 
02104:  INCF   xCB,F
02106:  BRA    207A
.................... 		 
.................... 					/* we could have gotten here with an exception already send, so only send if no exception */ 
.................... 					if ( 0 == result ) { 
02108:  MOVF   xCA,F
0210A:  BNZ   2124
.................... 						/* no exception, send ack */ 
.................... 						modbus_write_multiple_registers_rsp(modbus_rx.address,start_addr,num_registers); 
0210C:  MOVFF  1B4,2CC
02110:  MOVFF  2C7,2CE
02114:  MOVFF  2C6,2CD
02118:  MOVFF  2C9,2D0
0211C:  MOVFF  2C8,2CF
02120:  MOVLB  0
02122:  BRA    1EEA
.................... 					} 
....................  
.................... 					break;   
02124:  MOVLB  1
02126:  BRA    2148
.................... 				default: 
.................... 					/* we don't support most operations, so return ILLEGAL_FUNCTION exception */ 
.................... 					modbus_exception_rsp(modbus_rx.address,modbus_rx.func,ILLEGAL_FUNCTION); 
02128:  MOVFF  1B4,2CC
0212C:  MOVLB  2
0212E:  CLRF   xCE
02130:  MOVFF  1B6,2CD
02134:  MOVLW  01
02136:  MOVWF  xCF
02138:  MOVLB  0
0213A:  CALL   1122
.................... 					current.modbus_last_error=ILLEGAL_FUNCTION; 
0213E:  MOVLB  1
02140:  CLRF   x87
02142:  MOVLW  01
02144:  MOVWF  x86
....................  
.................... 					/* red led for 1 second */ 
.................... 					timers.led_on_green=0; 
02146:  CLRF   xAA
.................... 			} 
.................... 			/* reset watchdog seconds now that we are done processing request */ 
.................... 			current.watchdog_seconds=0; 
02148:  CLRF   x91
0214A:  CLRF   x90
....................  
.................... 		} else { 
0214C:  BRA    2162
.................... 			/* MODBUS packet for somebody else */ 
.................... 			if ( current.modbus_other_packets < 65535 ) 
0214E:  INCFSZ x84,W
02150:  BRA    2158
02152:  INCFSZ x85,W
02154:  BRA    2158
02156:  BRA    215E
.................... 				current.modbus_other_packets++; 
02158:  INCF   x84,F
0215A:  BTFSC  FD8.2
0215C:  INCF   x85,F
....................  
.................... 			/* yellow LED 200 milliseconds */ 
.................... 			timers.led_on_green=20; 
0215E:  MOVLW  14
02160:  MOVWF  xAA
02162:  MOVLB  0
.................... 		} 
....................  
.................... 	} 
.................... //	output_low(TP_RED); 
.................... } 
02164:  GOTO   23E4 (RETURN)
....................  
....................  
.................... #include "interrupt_pcwx.c" 
.................... /* HIGH priority interrupt will interrupt other interrupts. Compiler will 
.................... automatically save all registers ... which seems to incur about a 60 cycle 
.................... penalty  
....................  
.................... this ISR polls anemometers and counts between falling edges. 
.................... */ 
.................... #int_timer2 HIGH 
.................... void isr_100us(void) { 
.................... 	static int8 tick=0; 
....................  
.................... 	/* anemometer polling state variables */ 
.................... 	/* anemometer 0 / PIN_B0 */ 
.................... 	short ext0_count; 
.................... 	short ext0_now; 
.................... 	static short ext0_last=0; 
.................... 	static short ext0_state=0; 
....................  
.................... 	/* anemometer 1 / PIN_B1 */ 
.................... 	short ext1_count; 
.................... 	short ext1_now; 
.................... 	static short ext1_last=0; 
.................... 	static short ext1_state=0; 
....................  
.................... 	/* anemometer 2 / PIN_B2 */ 
.................... 	short ext2_count; 
.................... 	short ext2_now; 
.................... 	static short ext2_last=0; 
.................... 	static short ext2_state=0; 
....................  
.................... //	output_high(TP_RED); 
.................... 	 
.................... 	/* count time between falling edges */ 
.................... 	if ( ext0_count && 0xffff != timers.pulse_period[0] ) 
*
003D6:  MOVLB  2
003D8:  BTFSS  xE8.0
003DA:  BRA    03F4
003DC:  MOVLB  1
003DE:  INCFSZ x99,W
003E0:  BRA    03EC
003E2:  INCFSZ x9A,W
003E4:  BRA    03EC
003E6:  MOVLB  2
003E8:  BRA    03F4
003EA:  MOVLB  1
.................... 		timers.pulse_period[0]++; 
003EC:  INCF   x99,F
003EE:  BTFSC  FD8.2
003F0:  INCF   x9A,F
003F2:  MOVLB  2
.................... 	if ( ext1_count && 0xffff != timers.pulse_period[1] ) 
003F4:  BTFSS  xE8.2
003F6:  BRA    0410
003F8:  MOVLB  1
003FA:  INCFSZ x9B,W
003FC:  BRA    0408
003FE:  INCFSZ x9C,W
00400:  BRA    0408
00402:  MOVLB  2
00404:  BRA    0410
00406:  MOVLB  1
.................... 		timers.pulse_period[1]++; 
00408:  INCF   x9B,F
0040A:  BTFSC  FD8.2
0040C:  INCF   x9C,F
0040E:  MOVLB  2
.................... 	if ( ext2_count && 0xffff != timers.pulse_period[2] ) 
00410:  BTFSS  xE8.4
00412:  BRA    042C
00414:  MOVLB  1
00416:  INCFSZ x9D,W
00418:  BRA    0424
0041A:  INCFSZ x9E,W
0041C:  BRA    0424
0041E:  MOVLB  2
00420:  BRA    042C
00422:  MOVLB  1
.................... 		timers.pulse_period[2]++; 
00424:  INCF   x9D,F
00426:  BTFSC  FD8.2
00428:  INCF   x9E,F
0042A:  MOVLB  2
....................  
.................... 	/* anemometer 0 / PIN_B0 trigger on falling edge */ 
.................... 	ext0_now=input(PIN_B0); 
0042C:  BCF    xE8.1
0042E:  BTFSC  F81.0
00430:  BSF    xE8.1
.................... 	if ( 0 == ext0_now && 1 == ext0_last ) { 
00432:  BTFSC  xE8.1
00434:  BRA    04BA
00436:  MOVLB  1
00438:  BTFSC  xB0.1
0043A:  BRA    0440
0043C:  MOVLB  2
0043E:  BRA    04BA
.................... 		current.pulse_count[0]++; 
00440:  INCF   5F,F
00442:  BTFSS  FD8.2
00444:  BRA    044C
00446:  MOVLB  0
00448:  INCF   x60,F
0044A:  MOVLB  1
.................... 		current.pulse_sum[0]++; 
0044C:  MOVLW  01
0044E:  MOVLB  0
00450:  ADDWF  x65,F
00452:  BTFSC  FD8.0
00454:  INCF   x66,F
00456:  BTFSC  FD8.2
00458:  INCF   x67,F
0045A:  BTFSC  FD8.2
0045C:  INCF   x68,F
.................... 		if ( 1 == ext0_state ) { 
0045E:  MOVLB  1
00460:  BTFSS  xB0.2
00462:  BRA    04AA
.................... 			/* currently counting, time to finish */ 
.................... 			ext0_count=0; 
00464:  MOVLB  2
00466:  BCF    xE8.0
.................... 			current.pulse_period[0]=timers.pulse_period[0]; 
00468:  MOVFF  19A,4E
0046C:  MOVFF  199,4D
.................... 			if ( current.pulse_period[0] < current.pulse_min_period[0] ) { 
00470:  MOVF   4E,W
00472:  SUBWF  54,W
00474:  BNC   0486
00476:  BNZ   047E
00478:  MOVF   53,W
0047A:  SUBWF  4D,W
0047C:  BC    0486
.................... 				current.pulse_min_period[0]=current.pulse_period[0]; 
0047E:  MOVFF  4E,54
00482:  MOVFF  4D,53
.................... 			} 
.................... 			if ( current.pulse_period[0] > current.pulse_max_period[0] && current.pulse_period[0] != 65535  ) { 
00486:  MOVF   5A,W
00488:  SUBWF  4E,W
0048A:  BNC   04A6
0048C:  BNZ   0494
0048E:  MOVF   4D,W
00490:  SUBWF  59,W
00492:  BC    04A6
00494:  INCFSZ 4D,W
00496:  BRA    049E
00498:  INCFSZ 4E,W
0049A:  BRA    049E
0049C:  BRA    04A6
.................... 				current.pulse_max_period[0]=current.pulse_period[0]; 
0049E:  MOVFF  4E,5A
004A2:  MOVFF  4D,59
.................... 			} 
.................... 			ext0_state=0; 
004A6:  MOVLB  1
004A8:  BCF    xB0.2
.................... 		} 
.................... 		if ( 0 == ext0_state ) { 
004AA:  BTFSC  xB0.2
004AC:  BRA    04BA
.................... 			/* not counting, time to start */ 
.................... 			timers.pulse_period[0]=0; 
004AE:  CLRF   x9A
004B0:  CLRF   x99
.................... 			ext0_count=1; 
004B2:  MOVLB  2
004B4:  BSF    xE8.0
.................... 			ext0_state=1; 
004B6:  MOVLB  1
004B8:  BSF    xB0.2
.................... 		} 
.................... 	} 
.................... 	ext0_last = ext0_now; 
004BA:  MOVLB  1
004BC:  BCF    xB0.1
004BE:  MOVLB  2
004C0:  BTFSS  xE8.1
004C2:  BRA    04CA
004C4:  MOVLB  1
004C6:  BSF    xB0.1
004C8:  MOVLB  2
....................  
.................... 	/* anemometer 1 / PIN_B1 trigger on falling edge */ 
.................... 	ext1_now=input(PIN_B1); 
004CA:  BCF    xE8.3
004CC:  BTFSC  F81.1
004CE:  BSF    xE8.3
.................... 	if ( 0 == ext1_now && 1 == ext1_last ) { 
004D0:  BTFSC  xE8.3
004D2:  BRA    0552
004D4:  MOVLB  1
004D6:  BTFSC  xB0.3
004D8:  BRA    04DE
004DA:  MOVLB  2
004DC:  BRA    0552
.................... 		current.pulse_count[1]++; 
004DE:  MOVLB  0
004E0:  INCF   x61,F
004E2:  BTFSC  FD8.2
004E4:  INCF   x62,F
.................... 		current.pulse_sum[1]++; 
004E6:  MOVLW  01
004E8:  ADDWF  x69,F
004EA:  BTFSC  FD8.0
004EC:  INCF   x6A,F
004EE:  BTFSC  FD8.2
004F0:  INCF   x6B,F
004F2:  BTFSC  FD8.2
004F4:  INCF   x6C,F
.................... 		if ( 1 == ext1_state ) { 
004F6:  MOVLB  1
004F8:  BTFSS  xB0.4
004FA:  BRA    0542
.................... 			/* currently counting, time to finish */ 
.................... 			ext1_count=0; 
004FC:  MOVLB  2
004FE:  BCF    xE8.2
.................... 			current.pulse_period[1]=timers.pulse_period[1]; 
00500:  MOVFF  19C,50
00504:  MOVFF  19B,4F
.................... 			if ( current.pulse_period[1] < current.pulse_min_period[1] ) { 
00508:  MOVF   50,W
0050A:  SUBWF  56,W
0050C:  BNC   051E
0050E:  BNZ   0516
00510:  MOVF   55,W
00512:  SUBWF  4F,W
00514:  BC    051E
.................... 				current.pulse_min_period[1]=current.pulse_period[1]; 
00516:  MOVFF  50,56
0051A:  MOVFF  4F,55
.................... 			} 
.................... 			if ( current.pulse_period[1] > current.pulse_max_period[1] && current.pulse_period[1] != 65535 ) { 
0051E:  MOVF   5C,W
00520:  SUBWF  50,W
00522:  BNC   053E
00524:  BNZ   052C
00526:  MOVF   4F,W
00528:  SUBWF  5B,W
0052A:  BC    053E
0052C:  INCFSZ 4F,W
0052E:  BRA    0536
00530:  INCFSZ 50,W
00532:  BRA    0536
00534:  BRA    053E
.................... 				current.pulse_max_period[1]=current.pulse_period[1]; 
00536:  MOVFF  50,5C
0053A:  MOVFF  4F,5B
.................... 			} 
.................... 			ext1_state=0; 
0053E:  MOVLB  1
00540:  BCF    xB0.4
.................... 		} 
.................... 		if ( 0 == ext1_state ) { 
00542:  BTFSC  xB0.4
00544:  BRA    0552
.................... 			/* not counting, time to start */ 
.................... 			timers.pulse_period[1]=0; 
00546:  CLRF   x9C
00548:  CLRF   x9B
.................... 			ext1_count=1; 
0054A:  MOVLB  2
0054C:  BSF    xE8.2
.................... 			ext1_state=1; 
0054E:  MOVLB  1
00550:  BSF    xB0.4
.................... 		} 
.................... 	} 
.................... 	ext1_last = ext1_now; 
00552:  MOVLB  1
00554:  BCF    xB0.3
00556:  MOVLB  2
00558:  BTFSS  xE8.3
0055A:  BRA    0562
0055C:  MOVLB  1
0055E:  BSF    xB0.3
00560:  MOVLB  2
....................  
.................... 	/* anemometer 2 / PIN_B2 trigger on falling edge */ 
.................... 	ext2_now=input(PIN_B2); 
00562:  BCF    xE8.5
00564:  BTFSC  F81.2
00566:  BSF    xE8.5
.................... 	if ( 0 == ext2_now && 1 == ext2_last ) { 
00568:  BTFSC  xE8.5
0056A:  BRA    05EA
0056C:  MOVLB  1
0056E:  BTFSC  xB0.5
00570:  BRA    0576
00572:  MOVLB  2
00574:  BRA    05EA
.................... 		current.pulse_count[2]++; 
00576:  MOVLB  0
00578:  INCF   x63,F
0057A:  BTFSC  FD8.2
0057C:  INCF   x64,F
.................... 		current.pulse_sum[2]++; 
0057E:  MOVLW  01
00580:  ADDWF  x6D,F
00582:  BTFSC  FD8.0
00584:  INCF   x6E,F
00586:  BTFSC  FD8.2
00588:  INCF   x6F,F
0058A:  BTFSC  FD8.2
0058C:  INCF   x70,F
.................... 		if ( 1 == ext2_state ) { 
0058E:  MOVLB  1
00590:  BTFSS  xB0.6
00592:  BRA    05DA
.................... 			/* currently counting, time to finish */ 
.................... 			ext2_count=0; 
00594:  MOVLB  2
00596:  BCF    xE8.4
.................... 			current.pulse_period[2]=timers.pulse_period[2]; 
00598:  MOVFF  19E,52
0059C:  MOVFF  19D,51
.................... 			if ( current.pulse_period[2] < current.pulse_min_period[2] ) { 
005A0:  MOVF   52,W
005A2:  SUBWF  58,W
005A4:  BNC   05B6
005A6:  BNZ   05AE
005A8:  MOVF   57,W
005AA:  SUBWF  51,W
005AC:  BC    05B6
.................... 				current.pulse_min_period[2]=current.pulse_period[2]; 
005AE:  MOVFF  52,58
005B2:  MOVFF  51,57
.................... 			} 
.................... 			if ( current.pulse_period[2] > current.pulse_max_period[2] && current.pulse_period[2] != 65535 ) { 
005B6:  MOVF   5E,W
005B8:  SUBWF  52,W
005BA:  BNC   05D6
005BC:  BNZ   05C4
005BE:  MOVF   51,W
005C0:  SUBWF  5D,W
005C2:  BC    05D6
005C4:  INCFSZ 51,W
005C6:  BRA    05CE
005C8:  INCFSZ 52,W
005CA:  BRA    05CE
005CC:  BRA    05D6
.................... 				current.pulse_max_period[2]=current.pulse_period[2]; 
005CE:  MOVFF  52,5E
005D2:  MOVFF  51,5D
.................... 			} 
.................... 			ext2_state=0; 
005D6:  MOVLB  1
005D8:  BCF    xB0.6
.................... 		} 
.................... 		if ( 0 == ext2_state ) { 
005DA:  BTFSC  xB0.6
005DC:  BRA    05EA
.................... 			/* not counting, time to start */ 
.................... 			timers.pulse_period[2]=0; 
005DE:  CLRF   x9E
005E0:  CLRF   x9D
.................... 			ext2_count=1; 
005E2:  MOVLB  2
005E4:  BSF    xE8.4
.................... 			ext2_state=1; 
005E6:  MOVLB  1
005E8:  BSF    xB0.6
.................... 		} 
.................... 	} 
.................... 	ext2_last = ext2_now; 
005EA:  MOVLB  1
005EC:  BCF    xB0.5
005EE:  MOVLB  2
005F0:  BTFSS  xE8.5
005F2:  BRA    05FA
005F4:  MOVLB  1
005F6:  BSF    xB0.5
005F8:  MOVLB  2
....................  
....................  
.................... 	/* every 10 cycles we tell main() loop to do milisecond activities */ 
.................... 	tick++; 
005FA:  INCF   xBB,F
.................... 	if ( 10 == tick ) { 
005FC:  MOVF   xBB,W
005FE:  SUBLW  0A
00600:  BNZ   060A
.................... 		tick=0; 
00602:  CLRF   xBB
.................... 		timers.now_millisecond=1; 
00604:  MOVLB  1
00606:  BSF    xAD.2
00608:  MOVLB  2
.................... 	} 
....................  
.................... //	output_low(TP_RED); 
.................... } 
....................  
.................... /*  Raspberry PI connected serial port*/ 
0060A:  BCF    F9E.1
0060C:  MOVLB  0
0060E:  GOTO   0122
.................... #int_rda 
.................... void isr_rda() { 
.................... 	int8 c; 
....................  
.................... 	c=fgetc(MODBUS_SERIAL); 
*
0065E:  RCALL  0612
00660:  MOVFF  01,2E5
....................  
.................... 	if ( current.bridged_uarts ) { 
00664:  MOVLB  1
00666:  BTFSS  x8F.0
00668:  BRA    0676
.................... 		/* from PI to debugging cable */ 
.................... 		fputc(c,DEBUG); 
0066A:  MOVLB  2
0066C:  MOVF   xE5,W
0066E:  MOVLB  0
00670:  BRA    0628
.................... 		return; 
00672:  BRA    06CE
00674:  MOVLB  1
.................... 	}  
....................  
....................  
.................... 	/* Modbus */ 
.................... 	if (!modbus_serial_new) { 
00676:  BTFSC  xB0.0
00678:  BRA    06D0
.................... 		if(modbus_serial_state == MODBUS_GETADDY) { 
0067A:  MOVF   xB1,F
0067C:  BNZ   068E
.................... 			modbus_serial_crc.d = 0xFFFF; 
0067E:  SETF   xB3
00680:  SETF   xB2
.................... 			modbus_rx.address = c; 
00682:  MOVFF  2E5,1B4
.................... 			modbus_serial_state++; 
00686:  INCF   xB1,F
.................... 			modbus_rx.len = 0; 
00688:  CLRF   xB5
.................... 			modbus_rx.error=0; 
0068A:  CLRF   xB7
.................... 		} else if(modbus_serial_state == MODBUS_GETFUNC) { 
0068C:  BRA    06BC
0068E:  DECFSZ xB1,W
00690:  BRA    069A
.................... 			modbus_rx.func = c; 
00692:  MOVFF  2E5,1B6
.................... 			modbus_serial_state++; 
00696:  INCF   xB1,F
.................... 		} else if(modbus_serial_state == MODBUS_GETDATA) { 
00698:  BRA    06BC
0069A:  MOVF   xB1,W
0069C:  SUBLW  02
0069E:  BNZ   06BC
.................... 			if (modbus_rx.len>=MODBUS_SERIAL_RX_BUFFER_SIZE) { 
006A0:  INCFSZ xB5,W
006A2:  BRA    06A8
.................... 				modbus_rx.len=MODBUS_SERIAL_RX_BUFFER_SIZE-1; 
006A4:  MOVLW  FE
006A6:  MOVWF  xB5
.................... 			} 
.................... 			modbus_rx.data[modbus_rx.len]=c; 
006A8:  MOVLW  B8
006AA:  ADDWF  xB5,W
006AC:  MOVWF  FE9
006AE:  MOVLW  01
006B0:  MOVWF  FEA
006B2:  BTFSC  FD8.0
006B4:  INCF   FEA,F
006B6:  MOVFF  2E5,FEF
.................... 			modbus_rx.len++; 
006BA:  INCF   xB5,F
.................... 		} 
....................  
.................... 		modbus_calc_crc(c); 
006BC:  MOVFF  2E5,2E6
006C0:  MOVLB  0
006C2:  RCALL  0632
.................... 		modbus_enable_timeout(TRUE); 
006C4:  MOVLW  01
006C6:  MOVLB  2
006C8:  MOVWF  xE6
006CA:  MOVLB  0
006CC:  RCALL  0390
006CE:  MOVLB  1
.................... 	} 
.................... } 
....................  
....................  
....................  
006D0:  BCF    F9E.5
006D2:  MOVLB  0
006D4:  GOTO   007C
.................... void init() { 
.................... 	int8 i; 
....................  
.................... //	setup_adc_ports(AN0_TO_AN7,VSS_VREF); 
.................... //	setup_adc(ADC_CLOCK_DIV_16 | ADC_TAD_MUL_20 ); 
....................  
.................... 	setup_adc(ADC_OFF); 
*
00846:  BCF    FC2.0
....................  
.................... 	port_b_pullups(0b00001000); 
00848:  MOVLW  08
0084A:  MOVWF  F61
0084C:  BCF    FF1.7
....................  
.................... 	set_tris_a(0b00000000); 
0084E:  MOVLW  00
00850:  MOVWF  F92
.................... 	set_tris_b(0b11111111); 
00852:  MOVLW  FF
00854:  MOVWF  F93
.................... 	set_tris_c(0b10010010); 
00856:  MOVLW  92
00858:  MOVWF  F94
.................... 	set_tris_d(0b10000000);  
0085A:  MOVLW  80
0085C:  MOVWF  F95
.................... 	set_tris_e(0b00000000); 
0085E:  BCF    F96.0
00860:  BCF    F96.1
00862:  BCF    F96.2
00864:  BCF    F96.3
....................  
....................  
.................... 	/* data structure initialization */ 
.................... 	timers.led_on_green=0; 
00866:  MOVLB  1
00868:  CLRF   xAA
.................... 	timers.load_off_seconds=2; 
0086A:  CLRF   xAC
0086C:  MOVLW  02
0086E:  MOVWF  xAB
.................... 	timers.now_adc_sample=0; 
00870:  BCF    xAD.0
.................... 	timers.now_adc_reset_count=0; 
00872:  BCF    xAD.1
.................... 	timers.now_millisecond=0; 
00874:  BCF    xAD.2
.................... 	timers.port_b=0b11111111; 
00876:  SETF   xAE
.................... 	timers.port_c=0b11111111; 
00878:  SETF   xAF
....................  
.................... 	for ( i=0 ; i<3 ; i++ ) { 
0087A:  MOVLB  2
0087C:  CLRF   xC6
0087E:  MOVF   xC6,W
00880:  SUBLW  02
00882:  BNC   0930
.................... 		current.pulse_period[i]=0; 
00884:  CLRF   03
00886:  MOVFF  2C6,02
0088A:  BCF    FD8.0
0088C:  RLCF   02,F
0088E:  RLCF   03,F
00890:  MOVF   02,W
00892:  ADDLW  4D
00894:  MOVWF  FE9
00896:  MOVLW  00
00898:  ADDWFC 03,W
0089A:  MOVWF  FEA
0089C:  CLRF   FEC
0089E:  MOVF   FED,F
008A0:  CLRF   FEF
.................... 		current.pulse_min_period[i]=65535; 
008A2:  CLRF   03
008A4:  MOVFF  2C6,02
008A8:  BCF    FD8.0
008AA:  RLCF   02,F
008AC:  RLCF   03,F
008AE:  MOVF   02,W
008B0:  ADDLW  53
008B2:  MOVWF  FE9
008B4:  MOVLW  00
008B6:  ADDWFC 03,W
008B8:  MOVWF  FEA
008BA:  SETF   FEC
008BC:  MOVF   FED,F
008BE:  SETF   FEF
.................... 		current.pulse_max_period[i]=0; 
008C0:  CLRF   03
008C2:  MOVFF  2C6,02
008C6:  BCF    FD8.0
008C8:  RLCF   02,F
008CA:  RLCF   03,F
008CC:  MOVF   02,W
008CE:  ADDLW  59
008D0:  MOVWF  FE9
008D2:  MOVLW  00
008D4:  ADDWFC 03,W
008D6:  MOVWF  FEA
008D8:  CLRF   FEC
008DA:  MOVF   FED,F
008DC:  CLRF   FEF
.................... 		current.pulse_count[i]=0; 
008DE:  CLRF   03
008E0:  MOVFF  2C6,02
008E4:  BCF    FD8.0
008E6:  RLCF   02,F
008E8:  RLCF   03,F
008EA:  MOVF   02,W
008EC:  ADDLW  5F
008EE:  MOVWF  FE9
008F0:  MOVLW  00
008F2:  ADDWFC 03,W
008F4:  MOVWF  FEA
008F6:  CLRF   FEC
008F8:  MOVF   FED,F
008FA:  CLRF   FEF
.................... 		current.pulse_sum[i]=0; 
008FC:  CLRF   xE1
008FE:  MOVFF  2C6,2E0
00902:  CLRF   xE3
00904:  MOVLW  04
00906:  MOVWF  xE2
00908:  MOVLB  0
0090A:  RCALL  0824
0090C:  MOVF   01,W
0090E:  ADDLW  65
00910:  MOVWF  FE9
00912:  MOVLW  00
00914:  ADDWFC 02,W
00916:  MOVWF  FEA
00918:  MOVF   FEE,F
0091A:  MOVF   FEE,F
0091C:  CLRF   FEC
0091E:  MOVF   FED,F
00920:  CLRF   FEF
00922:  MOVF   FED,F
00924:  CLRF   FEF
00926:  MOVF   FED,F
00928:  CLRF   FEF
.................... 	} 
0092A:  MOVLB  2
0092C:  INCF   xC6,F
0092E:  BRA    087E
....................  
.................... 	current.modbus_our_packets=0; 
00930:  MOVLB  1
00932:  CLRF   x83
00934:  CLRF   x82
.................... 	current.modbus_other_packets=0; 
00936:  CLRF   x85
00938:  CLRF   x84
.................... 	current.modbus_last_error=0; 
0093A:  CLRF   x87
0093C:  CLRF   x86
.................... 	current.sequence_number=0; 
0093E:  CLRF   x89
00940:  CLRF   x88
.................... 	current.uptime_minutes=0; 
00942:  CLRF   x8B
00944:  CLRF   x8A
.................... 	current.interval_milliseconds=0; 
00946:  CLRF   x8D
00948:  CLRF   x8C
.................... 	current.adc_buffer_index=0; 
0094A:  CLRF   x81
.................... 	current.factory_unlocked=0; 
0094C:  CLRF   x8E
.................... 	current.bridged_uarts=0; 
0094E:  BCF    x8F.0
.................... 	current.watchdog_seconds=0; 
00950:  CLRF   x91
00952:  CLRF   x90
....................  
....................  
.................... 	/* power control switch */ 
.................... 	current.power_on_delay=config.power_on_above_delay; 
00954:  MOVFF  4A,194
00958:  MOVFF  49,193
.................... 	current.power_off_delay=config.power_off_below_delay; 
0095C:  MOVFF  46,196
00960:  MOVFF  45,195
.................... 	current.power_override_timeout=0; 
00964:  CLRF   x98
00966:  CLRF   x97
....................  
....................  
.................... 	/* interrupts */ 
....................  
.................... 	/* external interrupts for anemometers */ 
.................... 	ext_int_edge(0,H_TO_L); 
00968:  BCF    FF1.6
.................... //	enable_interrupts(INT_EXT); 
.................... 	ext_int_edge(1,H_TO_L); 
0096A:  BCF    FF1.5
.................... //	enable_interrupts(INT_EXT1); 
.................... 	ext_int_edge(2,H_TO_L); 
0096C:  BCF    FF1.4
.................... //	enable_interrupts(INT_EXT2); 
....................  
.................... 	/* one periodic interrupt @ 100uS. Generated from internal 16 MHz clock */ 
.................... 	/* prescale=16, match=24, postscale=1. Match is 24 because when match occurs, one cycle is lost */ 
.................... 	// setup_timer_2(T2_DIV_BY_16,24,1);  
....................  
.................... 	/* one periodic interrupt @ 100uS. Generated from system 12 MHz clock */ 
.................... 	/* prescale=4, match=74, postscale=1. Match is 74 because when match occurs, one cycle is lost */ 
.................... 	setup_timer_2(T2_DIV_BY_4,74,1); 
0096E:  MOVLW  00
00970:  IORLW  05
00972:  MOVWF  FBA
00974:  MOVLW  4A
00976:  MOVWF  FBB
....................  
.................... 	enable_interrupts(INT_TIMER2); 
00978:  BSF    F9D.1
.................... //	enable_interrupts(INT_RDA2); /* debug cable */ 
.................... 	/* RDA - PI is turned on in modbus_slave_pcwx's init */ 
.................... } 
0097A:  MOVLB  0
0097C:  GOTO   2208 (RETURN)
....................  
....................  
.................... void periodic_millisecond(void) { 
.................... 	static int8 uptimeticks=0; 
.................... 	static int16 adcTicks=0; 
.................... 	static int16 ticks=0; 
.................... 	/* button debouncing */ 
.................... //	static int16 b0_state=0; /* bridge push button */ 
.................... //	static int16 b1_state=0; /* reset line from PI */ 
.................... 	static int16 b2_state=0; /* watchdog line from PI */ 
.................... 	/* power control */ 
.................... 	static int16 adcValue; /* updates after each ADC sample run */ 
....................  
.................... 	timers.now_millisecond=0; 
*
00E80:  MOVLB  1
00E82:  BCF    xAD.2
....................  
.................... //	fputc('.',DEBUG); 
....................  
.................... #if 0 
.................... 	/* button must be down for 12 milliseconds */ 
.................... 	b0_state=(b0_state<<1) | !bit_test(timers.port_b,BUTTON_BIT) | 0xe000; 
.................... 	if ( b0_state==0xf000) { 
.................... 		/* button pressed */ 
.................... 		current.bridged_uarts = !current.bridged_uarts; 
.................... 		fprintf(DEBUG,"# bridged=%u\r\n",current.bridged_uarts); 
.................... 	} 
....................  
.................... 	/* if we are in bridged uarts ... only check for button press */ 
.................... 	if ( current.bridged_uarts ) { 
.................... 		return; 
.................... 	} 
.................... #endif 
....................  
.................... #if 0 
.................... 	/* reset must be down for 12 milliseconds */ 
.................... 	b1_state=(b1_state<<1) | !bit_test(timers.port_c,PIC_BOOTLOAD_REQUEST_BIT) | 0xe000; 
.................... 	if ( b1_state==0xf000) { 
.................... 		/* reset line asserted */ 
.................... 		if ( config.allow_bootload_request ) { 
.................... 			reset_cpu(); 
.................... 		} 
.................... 		/* BUG - I think that bootload request should be high for x milliseconds, rather than low */ 
.................... 	} 
.................... #endif 
....................  
.................... 	/* watchdog must be down for 12 milliseconds for hit to register */ 
.................... 	b2_state=(b2_state<<1) | !bit_test(timers.port_c,WATCHDOG_FROM_PI_BIT) | 0xe000; 
00E84:  BCF    FD8.0
00E86:  MOVLB  2
00E88:  RLCF   xC1,W
00E8A:  MOVWF  xC6
00E8C:  RLCF   xC2,W
00E8E:  MOVWF  xC7
00E90:  MOVLW  00
00E92:  MOVLB  1
00E94:  BTFSS  xAF.5
00E96:  MOVLW  01
00E98:  MOVLB  2
00E9A:  IORWF  xC6,F
00E9C:  MOVFF  2C6,2C1
00EA0:  MOVF   xC7,W
00EA2:  IORLW  E0
00EA4:  MOVWF  xC2
.................... 	if ( b2_state==0xf000) { 
00EA6:  MOVF   xC1,F
00EA8:  BNZ   0EB0
00EAA:  MOVF   xC2,W
00EAC:  SUBLW  F0
00EAE:  BNZ   0EB0
.................... 		/* watchdog hit */ 
.................... //		current.watchdog_seconds=0; 
.................... 	} 
....................  
.................... 	/* anemometers quit moving */ 
.................... 	if ( 0xffff == timers.pulse_period[0] ) 
00EB0:  MOVLB  1
00EB2:  INCFSZ x99,W
00EB4:  BRA    0EBE
00EB6:  INCFSZ x9A,W
00EB8:  BRA    0EBE
.................... 				current.pulse_period[0]=0; 
00EBA:  CLRF   4E
00EBC:  CLRF   4D
.................... 	if ( 0xffff == timers.pulse_period[1] ) 
00EBE:  INCFSZ x9B,W
00EC0:  BRA    0ECA
00EC2:  INCFSZ x9C,W
00EC4:  BRA    0ECA
.................... 				current.pulse_period[1]=0; 
00EC6:  CLRF   50
00EC8:  CLRF   4F
.................... 	if ( 0xffff == timers.pulse_period[2] ) 
00ECA:  INCFSZ x9D,W
00ECC:  BRA    0ED6
00ECE:  INCFSZ x9E,W
00ED0:  BRA    0ED6
.................... 				current.pulse_period[2]=0; 
00ED2:  CLRF   52
00ED4:  CLRF   51
....................  
....................  
.................... 	/* read port_b and c pin states */ 
.................... 	timers.port_b=port_b; 
00ED6:  MOVFF  F81,1AE
.................... 	timers.port_c=port_c; 
00EDA:  MOVFF  F82,1AF
....................  
.................... 	/* green LED control */ 
.................... 	if ( current.bridged_uarts ) { 
00EDE:  BTFSS  x8F.0
00EE0:  BRA    0EE6
.................... 		/* always on when ports are bridged */ 
.................... 		output_high(LED_GREEN); 
00EE2:  BSF    F89.3
.................... 	} else { 
00EE4:  BRA    0EF2
.................... 		/* green LED in Modbus mode */ 
.................... 		if ( 0==timers.led_on_green ) { 
00EE6:  MOVF   xAA,F
00EE8:  BNZ   0EEE
.................... 			output_low(LED_GREEN); 
00EEA:  BCF    F89.3
.................... 		} else { 
00EEC:  BRA    0EF2
.................... 			output_high(LED_GREEN); 
00EEE:  BSF    F89.3
.................... 			timers.led_on_green--; 
00EF0:  DECF   xAA,F
.................... 		} 
.................... 	} 
....................  
....................  
....................  
....................  
.................... 	/* some other random stuff that we don't need to do every cycle in main */ 
.................... 	if ( current.interval_milliseconds < 65535 ) { 
00EF2:  INCFSZ x8C,W
00EF4:  BRA    0EFC
00EF6:  INCFSZ x8D,W
00EF8:  BRA    0EFC
00EFA:  BRA    0F02
.................... 		current.interval_milliseconds++; 
00EFC:  INCF   x8C,F
00EFE:  BTFSC  FD8.2
00F00:  INCF   x8D,F
.................... 	} 
....................  
.................... 	/* seconds */ 
.................... 	ticks++; 
00F02:  MOVLB  2
00F04:  INCF   xBF,F
00F06:  BTFSC  FD8.2
00F08:  INCF   xC0,F
.................... 	if ( 1000 == ticks ) { 
00F0A:  MOVF   xBF,W
00F0C:  SUBLW  E8
00F0E:  BNZ   0F94
00F10:  MOVF   xC0,W
00F12:  SUBLW  03
00F14:  BNZ   0F94
.................... 		ticks=0; 
00F16:  CLRF   xC0
00F18:  CLRF   xBF
....................  
.................... 		/* watchdog power control of pi */ 
.................... 		if ( current.watchdog_seconds != 65535 ) { 
00F1A:  MOVLB  1
00F1C:  INCFSZ x90,W
00F1E:  BRA    0F26
00F20:  INCFSZ x91,W
00F22:  BRA    0F26
00F24:  BRA    0F2C
.................... 			current.watchdog_seconds++; 
00F26:  INCF   x90,F
00F28:  BTFSC  FD8.2
00F2A:  INCF   x91,F
.................... 		} 
....................  
.................... 		/* shut off when: 
.................... 			a) watchdog_seconds_max != 0 AND watchdog_seconds is greater than watchdog_seconds_max AND it isn't already off  
.................... 		*/ 
.................... 		if ( 0 != config.watchdog_seconds_max && current.watchdog_seconds > config.watchdog_seconds_max && 0 == timers.load_off_seconds ) { 
00F2C:  MOVF   3E,F
00F2E:  BNZ   0F34
00F30:  MOVF   3F,F
00F32:  BZ    0F52
00F34:  MOVF   3F,W
00F36:  SUBWF  x91,W
00F38:  BNC   0F52
00F3A:  BNZ   0F42
00F3C:  MOVF   x90,W
00F3E:  SUBWF  3E,W
00F40:  BC    0F52
00F42:  MOVF   xAB,F
00F44:  BNZ   0F52
00F46:  MOVF   xAC,F
00F48:  BNZ   0F52
.................... 			timers.load_off_seconds=config.pi_offtime_seconds; 
00F4A:  MOVFF  41,1AC
00F4E:  MOVFF  40,1AB
.................... 		} 
....................  
.................... 		/* control power to the raspberrry pi load */ 
.................... 		if ( 0==timers.load_off_seconds ) { 
00F52:  MOVF   xAB,F
00F54:  BNZ   0F5E
00F56:  MOVF   xAC,F
00F58:  BNZ   0F5E
.................... 			output_high(PI_POWER_EN); 
00F5A:  BSF    F8B.0
.................... 		} else { 
00F5C:  BRA    0F74
.................... 			output_low(PI_POWER_EN); 
00F5E:  BCF    F8B.0
.................... 			timers.load_off_seconds--; 
00F60:  MOVF   xAB,W
00F62:  BTFSC  FD8.2
00F64:  DECF   xAC,F
00F66:  DECF   xAB,F
....................  
.................... 			if ( 0 == timers.load_off_seconds ) { 
00F68:  MOVF   xAB,F
00F6A:  BNZ   0F74
00F6C:  MOVF   xAC,F
00F6E:  BNZ   0F74
.................... 				/* reset watchdog seconds so we can turn back on */ 
.................... 				current.watchdog_seconds=0; 
00F70:  CLRF   x91
00F72:  CLRF   x90
.................... 			} 
.................... 		} 
....................  
.................... 		 
.................... 		/* uptime counter */ 
.................... 		uptimeTicks++; 
00F74:  MOVLB  2
00F76:  INCF   xBC,F
.................... 		if ( 60 == uptimeTicks ) { 
00F78:  MOVF   xBC,W
00F7A:  SUBLW  3C
00F7C:  BNZ   0F94
.................... 			uptimeTicks=0; 
00F7E:  CLRF   xBC
.................... 			if ( current.uptime_minutes < 65535 )  
00F80:  MOVLB  1
00F82:  INCFSZ x8A,W
00F84:  BRA    0F8C
00F86:  INCFSZ x8B,W
00F88:  BRA    0F8C
00F8A:  BRA    0F92
.................... 				current.uptime_minutes++; 
00F8C:  INCF   x8A,F
00F8E:  BTFSC  FD8.2
00F90:  INCF   x8B,F
00F92:  MOVLB  2
.................... 		} 
.................... 	} 
....................  
....................  
.................... 	if ( 65535 == adcValue ) { 
00F94:  INCFSZ xC3,W
00F96:  BRA    0FAA
00F98:  INCFSZ xC4,W
00F9A:  BRA    0FAA
.................... 		/* signaled that a new ADC sample was taken and we need to run again */ 
.................... 		/* read current ADC value */	 
.................... 		adcValue=adc_get(0); 
00F9C:  CLRF   xDA
00F9E:  MOVLB  0
00FA0:  RCALL  0DF8
00FA2:  MOVFF  02,2C4
00FA6:  MOVFF  01,2C3
.................... 	} 
....................  
.................... #if 0 
.................... 	if ( adcValue > config.power_on_above_adc ) { 
.................... 		if ( current.power_on_delay > 0 ) { 
.................... 			current.power_on_delay--; 
.................... 		} else { 
.................... 			current.p_on=1; 
.................... 		} 
.................... 	} else { 
.................... 		current.power_on_delay=config.power_on_above_delay; 
.................... 	} 
.................... 			 
....................  
.................... 	if ( adcValue < config.power_off_below_adc ) { 
.................... 		if ( current.power_off_delay > 0 ) { 
.................... 			current.power_off_delay--; 
.................... 		} else { 
.................... 			current.p_on=0; 
.................... 		} 
.................... 	} else { 
.................... 		current.power_off_delay=config.power_off_below_delay; 
.................... 	} 
.................... #endif	 
....................  
.................... 	/* ADC sample counter */ 
.................... 	if ( timers.now_adc_reset_count ) { 
00FAA:  MOVLB  1
00FAC:  BTFSS  xAD.1
00FAE:  BRA    0FB8
.................... 		timers.now_adc_reset_count=0; 
00FB0:  BCF    xAD.1
.................... 		adcTicks=0; 
00FB2:  MOVLB  2
00FB4:  CLRF   xBE
00FB6:  CLRF   xBD
.................... 	} 
....................  
.................... 	/* ADC sampling trigger */ 
.................... 	adcTicks++; 
00FB8:  MOVLB  2
00FBA:  INCF   xBD,F
00FBC:  BTFSC  FD8.2
00FBE:  INCF   xBE,F
.................... 	if ( adcTicks == config.adc_sample_ticks ) { 
00FC0:  MOVF   3B,W
00FC2:  SUBWF  xBD,W
00FC4:  BNZ   0FDA
00FC6:  MOVF   3C,W
00FC8:  SUBWF  xBE,W
00FCA:  BNZ   0FDA
.................... 		adcTicks=0; 
00FCC:  CLRF   xBE
00FCE:  CLRF   xBD
.................... 		timers.now_adc_sample=1; 
00FD0:  MOVLB  1
00FD2:  BSF    xAD.0
.................... 		adcValue=65535; /* signal power control (above) on next pass to resample */ 
00FD4:  MOVLB  2
00FD6:  SETF   xC4
00FD8:  SETF   xC3
.................... 	} 
....................  
....................  
....................  
.................... } 
00FDA:  MOVLB  0
00FDC:  GOTO   23D2 (RETURN)
....................  
....................  
.................... void main(void) { 
*
02168:  CLRF   FF8
0216A:  BCF    FF1.2
0216C:  BSF    F9F.1
0216E:  BCF    F9F.5
02170:  BSF    FD0.7
02172:  BSF    07.7
02174:  CLRF   FEA
02176:  CLRF   FE9
02178:  CLRF   35
0217A:  BCF    FB8.3
0217C:  MOVLW  0C
0217E:  MOVWF  FAF
02180:  MOVLW  A6
02182:  MOVWF  FAC
02184:  MOVLW  90
02186:  MOVWF  FAB
02188:  BCF    F70.3
0218A:  MOVLW  4D
0218C:  MOVWF  F75
0218E:  MOVLW  A6
02190:  MOVWF  F72
02192:  MOVLW  90
02194:  MOVWF  F71
02196:  MOVLB  1
02198:  BCF    xB0.0
0219A:  CLRF   xB1
0219C:  MOVLB  2
0219E:  CLRF   xBB
021A0:  MOVLB  1
021A2:  BCF    xB0.1
021A4:  BCF    xB0.2
021A6:  BCF    xB0.3
021A8:  BCF    xB0.4
021AA:  BCF    xB0.5
021AC:  BCF    xB0.6
021AE:  MOVLB  2
021B0:  CLRF   xBC
021B2:  CLRF   xBE
021B4:  CLRF   xBD
021B6:  CLRF   xC0
021B8:  CLRF   xBF
021BA:  CLRF   xC2
021BC:  CLRF   xC1
021BE:  MOVF   FC1,W
021C0:  ANDLW  F0
021C2:  MOVWF  FC1
021C4:  MOVLW  00
021C6:  MOVLB  F
021C8:  MOVWF  x38
021CA:  MOVWF  x3C
021CC:  MOVWF  x39
021CE:  MOVWF  x3A
021D0:  MOVWF  x3B
021D2:  MOVLB  1
021D4:  CLRF   x88
021D6:  CLRF   F77
021D8:  CLRF   F78
021DA:  CLRF   F79
021DC:  CLRF   2F
021DE:  CLRF   30
021E0:  MOVLB  2
021E2:  CLRF   xB7
021E4:  CLRF   xB8
021E6:  CLRF   xB9
021E8:  CLRF   xBA
021EA:  CLRF   xC3
021EC:  CLRF   xC4
.................... 	int8 i; 
....................  
.................... 	i=restart_cause(); 
021EE:  MOVF   FD0,W
021F0:  ANDLW  0F
021F2:  BTFSS  FD0.4
021F4:  MOVLW  00
021F6:  BSF    FD0.0
021F8:  BSF    FD0.1
021FA:  BSF    FD0.4
021FC:  BSF    FD8.3
021FE:  BSF    FD8.4
02200:  MOVWF  xC5
....................  
.................... 	init(); 
02202:  MOVLB  0
02204:  GOTO   0846
....................  
....................  
.................... 	/* debugging messages sent on RS-485 port ... so we will start transmitting */ 
.................... 	output_high(RS485_DE); 
02208:  BSF    F8C.1
.................... 	output_high(RS485_NRE); 
0220A:  BSF    F8C.0
....................  
.................... 	fprintf(DEBUG,"# pcwx %s\r\n",__DATE__); 
0220C:  MOVLW  D8
0220E:  MOVWF  FF6
02210:  MOVLW  06
02212:  MOVWF  FF7
02214:  MOVLW  07
02216:  MOVLB  2
02218:  MOVWF  xC7
0221A:  MOVLB  0
0221C:  CALL   0980
02220:  MOVLW  E4
02222:  MOVWF  FF6
02224:  MOVLW  06
02226:  MOVWF  FF7
02228:  CALL   09AA
0222C:  MOVLW  0D
0222E:  BTFSS  FA4.4
02230:  BRA    222E
02232:  MOVWF  F73
02234:  MOVLW  0A
02236:  BTFSS  FA4.4
02238:  BRA    2236
0223A:  MOVWF  F73
.................... 	fprintf(DEBUG,"# restart_cause()=%u ",i); 
0223C:  MOVLW  EE
0223E:  MOVWF  FF6
02240:  MOVLW  06
02242:  MOVWF  FF7
02244:  MOVLW  12
02246:  MOVLB  2
02248:  MOVWF  xC7
0224A:  MOVLB  0
0224C:  CALL   0980
02250:  MOVFF  2C5,2C7
02254:  MOVLW  1B
02256:  MOVLB  2
02258:  MOVWF  xC8
0225A:  MOVLB  0
0225C:  CALL   09F8
02260:  MOVLW  20
02262:  BTFSS  FA4.4
02264:  BRA    2262
02266:  MOVWF  F73
.................... 	switch ( i ) { 
02268:  MOVLB  2
0226A:  MOVF   xC5,W
0226C:  XORLW  07
0226E:  MOVLB  0
02270:  BZ    228C
02272:  XORLW  0C
02274:  BZ    229A
02276:  XORLW  04
02278:  BZ    22A8
0227A:  XORLW  03
0227C:  BZ    22B6
0227E:  XORLW  02
02280:  BZ    22C4
02282:  XORLW  0D
02284:  BZ    22D2
02286:  XORLW  03
02288:  BZ    22E0
0228A:  BRA    22EE
.................... 		case WDT_TIMEOUT: fprintf(DEBUG,"WDT_TIMEOUT"); break; 
0228C:  MOVLW  04
0228E:  MOVWF  FF6
02290:  MOVLW  07
02292:  MOVWF  FF7
02294:  CALL   09AA
02298:  BRA    22FA
.................... 		case MCLR_FROM_SLEEP: fprintf(DEBUG,"MCLR_FROM_SLEEP"); break; 
0229A:  MOVLW  10
0229C:  MOVWF  FF6
0229E:  MOVLW  07
022A0:  MOVWF  FF7
022A2:  CALL   09AA
022A6:  BRA    22FA
.................... 		case MCLR_FROM_RUN: fprintf(DEBUG,"MCLR_FROM_RUN"); break; 
022A8:  MOVLW  20
022AA:  MOVWF  FF6
022AC:  MOVLW  07
022AE:  MOVWF  FF7
022B0:  CALL   09AA
022B4:  BRA    22FA
.................... 		case NORMAL_POWER_UP: fprintf(DEBUG,"NORMAL_POWER_UP"); break; 
022B6:  MOVLW  2E
022B8:  MOVWF  FF6
022BA:  MOVLW  07
022BC:  MOVWF  FF7
022BE:  CALL   09AA
022C2:  BRA    22FA
.................... 		case BROWNOUT_RESTART: fprintf(DEBUG,"BROWNOUT_RESTART"); break; 
022C4:  MOVLW  3E
022C6:  MOVWF  FF6
022C8:  MOVLW  07
022CA:  MOVWF  FF7
022CC:  CALL   09AA
022D0:  BRA    22FA
.................... 		case WDT_FROM_SLEEP: fprintf(DEBUG,"WDT_FROM_SLEEP"); break; 
022D2:  MOVLW  50
022D4:  MOVWF  FF6
022D6:  MOVLW  07
022D8:  MOVWF  FF7
022DA:  CALL   09AA
022DE:  BRA    22FA
.................... 		case RESET_INSTRUCTION: fprintf(DEBUG,"RESET_INSTRUCTION"); break; 
022E0:  MOVLW  60
022E2:  MOVWF  FF6
022E4:  MOVLW  07
022E6:  MOVWF  FF7
022E8:  CALL   09AA
022EC:  BRA    22FA
.................... 		default: fprintf(DEBUG,"unknown!"); 
022EE:  MOVLW  72
022F0:  MOVWF  FF6
022F2:  MOVLW  07
022F4:  MOVWF  FF7
022F6:  CALL   09AA
.................... 	} 
.................... 	fprintf(DEBUG,"\r\n"); 
022FA:  MOVLW  7C
022FC:  MOVWF  FF6
022FE:  MOVLW  07
02300:  MOVWF  FF7
02302:  CALL   09AA
....................  
.................... 	fprintf(DEBUG,"# read_param_file() starting ..."); 
02306:  MOVLW  80
02308:  MOVWF  FF6
0230A:  MOVLW  07
0230C:  MOVWF  FF7
0230E:  CALL   09AA
.................... 	read_param_file(); 
02312:  GOTO   0C36
.................... 	fprintf(DEBUG," complete\r\n"); 
02316:  MOVLW  A2
02318:  MOVWF  FF6
0231A:  MOVLW  07
0231C:  MOVWF  FF7
0231E:  CALL   09AA
....................  
....................  
.................... 	if ( config.modbus_address > 128 ) { 
02322:  MOVF   36,W
02324:  SUBLW  80
02326:  BC    2344
.................... 		fprintf(DEBUG,"# write_default_param_file() starting ..."); 
02328:  MOVLW  AE
0232A:  MOVWF  FF6
0232C:  MOVLW  07
0232E:  MOVWF  FF7
02330:  CALL   09AA
.................... 		write_default_param_file(); 
02334:  CALL   0C02
.................... 		fprintf(DEBUG," complete\r\n"); 
02338:  MOVLW  D8
0233A:  MOVWF  FF6
0233C:  MOVLW  07
0233E:  MOVWF  FF7
02340:  CALL   09AA
.................... 	} 
....................  
.................... 	/* start Modbus slave */ 
.................... 	setup_uart(TRUE); 
02344:  BSF    FAB.7
02346:  BSF    FAB.4
.................... 	/* modbus_init turns on global interrupts */ 
.................... 	fprintf(DEBUG,"# modbus_init() starting ..."); 
02348:  MOVLW  E4
0234A:  MOVWF  FF6
0234C:  MOVLW  07
0234E:  MOVWF  FF7
02350:  CALL   09AA
.................... 	modbus_init(); 
02354:  GOTO   0C94
.................... 	fprintf(DEBUG," complete\r\n"); 
02358:  MOVLW  02
0235A:  MOVWF  FF6
0235C:  MOVLW  08
0235E:  MOVWF  FF7
02360:  CALL   09AA
....................  
.................... 	fprintf(DEBUG,"# bridged_uarts=%u\r\n",current.bridged_uarts); 
02364:  MOVLW  00
02366:  MOVLB  1
02368:  BTFSC  x8F.0
0236A:  MOVLW  01
0236C:  MOVLB  2
0236E:  MOVWF  xC6
02370:  MOVLW  0E
02372:  MOVWF  FF6
02374:  MOVLW  08
02376:  MOVWF  FF7
02378:  MOVLW  10
0237A:  MOVWF  xC7
0237C:  MOVLB  0
0237E:  CALL   0980
02382:  MOVFF  2C6,2C7
02386:  MOVLW  1B
02388:  MOVLB  2
0238A:  MOVWF  xC8
0238C:  MOVLB  0
0238E:  CALL   09F8
02392:  MOVLW  0D
02394:  BTFSS  FA4.4
02396:  BRA    2394
02398:  MOVWF  F73
0239A:  MOVLW  0A
0239C:  BTFSS  FA4.4
0239E:  BRA    239C
023A0:  MOVWF  F73
....................  
.................... 	/* Prime ADC filter */ 
.................... 	for ( i=0 ; i<30 ; i++ ) { 
023A2:  MOVLB  2
023A4:  CLRF   xC5
023A6:  MOVF   xC5,W
023A8:  SUBLW  1D
023AA:  BNC   23B8
.................... 		adc_update(); 
023AC:  MOVLB  0
023AE:  CALL   0D52
.................... 	} 
023B2:  MOVLB  2
023B4:  INCF   xC5,F
023B6:  BRA    23A6
....................  
.................... 	/* set power switch to initial state */ 
.................... 	current.p_on=config.power_startup; 
023B8:  MOVFF  42,192
....................  
....................  
.................... 	/* shut off RS-485 transmit once transmit buffer is empty */ 
.................... 	while ( ! TRMT2 ) 
.................... 		; 
023BC:  BTFSS  F72.1
023BE:  BRA    23BC
.................... 	output_low(RS485_DE); 
023C0:  BCF    F8C.1
.................... 	output_low(RS485_NRE); 
023C2:  BCF    F8C.0
.................... 	/* done with RS-485 port startup message */ 
....................  
....................  
.................... 	for ( ; ; ) { 
.................... 		restart_wdt(); 
023C4:  CLRWDT
....................  
.................... #if 0 
.................... 		if ( current.bridged_uarts ) { 
.................... 			disable_interrupts(INT_TIMER2); 
.................... 			if ( kbhit(DEBUG) ) { 
.................... 				fputc(fgetc(DEBUG),MODBUS_SERIAL); 
.................... 			} 
....................  
.................... 			if ( !bit_test(timers.port_b,BUTTON_BIT) ) { 
.................... 				current.bridged_uarts=0; 
.................... 				enable_interrupts(INT_TIMER2); 
.................... 			} 
....................  
.................... 			continue; 
.................... 		}  
.................... #endif 
....................  
.................... 		if ( timers.now_millisecond ) { 
023C6:  MOVLB  1
023C8:  BTFSS  xAD.2
023CA:  BRA    23D4
.................... 			periodic_millisecond(); 
023CC:  MOVLB  0
023CE:  GOTO   0E80
023D2:  MOVLB  1
.................... 		} 
....................  
....................  
.................... 		if ( timers.now_adc_sample ) { 
023D4:  BTFSS  xAD.0
023D6:  BRA    23E0
.................... 			timers.now_adc_sample=0; 
023D8:  BCF    xAD.0
.................... 			adc_update(); 
023DA:  MOVLB  0
023DC:  CALL   0D52
.................... 		} 
....................  
.................... //		if ( ! current.bridged_uarts ) { 
.................... 			modbus_process(); 
023E0:  MOVLB  0
023E2:  BRA    1F32
.................... //		} 
....................  
.................... 	} 
023E4:  MOVLB  2
023E6:  BRA    23C4
.................... } 
023E8:  SLEEP 

Configuration Fuses:
   Word  1: 2300   HSM NOPLLEN PRIMARY_ON NOFCMEN NOIESO
   Word  2: 3F1E   PUT BROWNOUT BORV19 WDT WDT32768
   Word  3: 3F00   CCP2C1 PBADEN CCP3B5 HFOFST TIMER3C0 CCP2D2 NOMCLR
   Word  4: 0081   STVREN NOLVP NOXINST NODEBUG
   Word  5: C00F   NOPROTECT NOCPB NOCPD
   Word  6: E00F   NOWRT NOWRTC NOWRTB NOWRTD
   Word  7: 400F   NOEBTR NOEBTRB
