CCS PCH C Compiler, Version 4.135, 4375               07-Dec-15 14:40

               Filename: C:\Users\James Jarvis\Desktop\planetPrecision\pcwx\pcwx.lst

               ROM used: 11692 bytes (18%)
                         Largest free fragment is 53840
               RAM used: 2265 (58%) at main() level
                         2541 (65%) worst case
               Stack:    9 worst case (6 in main + 3 for interrupts)

*
00000:  GOTO   2B44
*
00008:  GOTO   00E2
0000C:  NOP   
0000E:  NOP   
00010:  NOP   
00012:  NOP   
00014:  NOP   
00016:  NOP   
00018:  MOVWF  04
0001A:  MOVFF  FD8,05
0001E:  MOVFF  FE0,06
00022:  MOVLB  0
00024:  MOVFF  FE9,0C
00028:  MOVFF  FEA,07
0002C:  MOVFF  FE1,08
00030:  MOVFF  FE2,09
00034:  MOVFF  FD9,0A
00038:  MOVFF  FDA,0B
0003C:  MOVFF  FF3,12
00040:  MOVFF  FF4,13
00044:  MOVFF  FFA,14
00048:  MOVFF  FF5,15
0004C:  MOVFF  FF6,16
00050:  MOVFF  FF7,17
00054:  MOVFF  00,0E
00058:  MOVFF  01,0F
0005C:  MOVFF  02,10
00060:  MOVFF  03,11
00064:  BTFSS  FF2.5
00066:  GOTO   0070
0006A:  BTFSC  FF2.2
0006C:  GOTO   041C
00070:  BTFSS  F9D.5
00072:  GOTO   007C
00076:  BTFSC  F9E.5
00078:  GOTO   07A2
0007C:  BTFSS  F9D.4
0007E:  GOTO   0088
00082:  BTFSC  F9E.4
00084:  GOTO   0732
00088:  BTFSS  FA3.5
0008A:  GOTO   0094
0008E:  BTFSC  FA4.5
00090:  GOTO   06AA
00094:  MOVFF  0E,00
00098:  MOVFF  0F,01
0009C:  MOVFF  10,02
000A0:  MOVFF  11,03
000A4:  MOVFF  0C,FE9
000A8:  MOVFF  07,FEA
000AC:  BSF    07.7
000AE:  MOVFF  08,FE1
000B2:  MOVFF  09,FE2
000B6:  MOVFF  0A,FD9
000BA:  MOVFF  0B,FDA
000BE:  MOVFF  12,FF3
000C2:  MOVFF  13,FF4
000C6:  MOVFF  14,FFA
000CA:  MOVFF  15,FF5
000CE:  MOVFF  16,FF6
000D2:  MOVFF  17,FF7
000D6:  MOVF   04,W
000D8:  MOVFF  06,FE0
000DC:  MOVFF  05,FD8
000E0:  RETFIE 0
000E2:  MOVWF  1A
000E4:  MOVFF  FD8,1B
000E8:  MOVFF  FE0,1C
000EC:  MOVLB  0
000EE:  MOVFF  FE9,22
000F2:  MOVFF  FEA,1D
000F6:  MOVFF  FE1,1E
000FA:  MOVFF  FE2,1F
000FE:  MOVFF  FD9,20
00102:  MOVFF  FDA,21
00106:  MOVFF  FF3,28
0010A:  MOVFF  FF4,29
0010E:  MOVFF  FFA,2A
00112:  MOVFF  FF5,2B
00116:  MOVFF  FF6,2C
0011A:  MOVFF  FF7,2D
0011E:  MOVFF  00,24
00122:  MOVFF  01,25
00126:  MOVFF  02,26
0012A:  MOVFF  03,27
0012E:  BTFSS  F9D.1
00130:  GOTO   013A
00134:  BTFSC  F9E.1
00136:  GOTO   044E
0013A:  MOVFF  24,00
0013E:  MOVFF  25,01
00142:  MOVFF  26,02
00146:  MOVFF  27,03
0014A:  MOVFF  22,FE9
0014E:  MOVFF  1D,FEA
00152:  BSF    1D.7
00154:  MOVFF  1E,FE1
00158:  MOVFF  1F,FE2
0015C:  MOVFF  20,FD9
00160:  MOVFF  21,FDA
00164:  MOVFF  28,FF3
00168:  MOVFF  29,FF4
0016C:  MOVFF  2A,FFA
00170:  MOVFF  2B,FF5
00174:  MOVFF  2C,FF6
00178:  MOVFF  2D,FF7
0017C:  MOVF   1A,W
0017E:  MOVFF  1C,FE0
00182:  MOVFF  1B,FD8
00186:  RETFIE 0
.................... #include "pcwx.h" 
.................... #include <18F46K22.h> 
.................... //////// Standard Header file for the PIC18F46K22 device //////////////// 
.................... #device PIC18F46K22 
.................... #list 
....................  
.................... #device ADC=12 
.................... #device *=16 
.................... #device HIGH_INTS=TRUE /* allow high priority "FAST" interrutps */ 
....................  
.................... #include <stdlib.h> 
.................... /////////////////////////////////////////////////////////////////////////// 
.................... ////        (C) Copyright 1996,2007 Custom Computer Services           //// 
.................... //// This source code may only be used by licensed users of the CCS C  //// 
.................... //// compiler.  This source code may only be distributed to other      //// 
.................... //// licensed users of the CCS C compiler.  No other use, reproduction //// 
.................... //// or distribution is permitted without written permission.          //// 
.................... //// Derivative programs created using this software in object code    //// 
.................... //// form are not restricted in any way.                               //// 
.................... /////////////////////////////////////////////////////////////////////////// 
....................  
.................... #ifndef _STDLIB 
.................... #define _STDLIB 
....................  
.................... //--------------------------------------------------------------------------- 
.................... // Definitions and types 
.................... //--------------------------------------------------------------------------- 
....................  
.................... #ifndef RAND_MAX 
.................... #define RAND_MAX  32767    // The value of which is the maximum value 
....................                            // ... returned by the rand function 
.................... #endif 
....................  
....................  
.................... #IF (sizeof(int16*)>1) 
.................... #DEFINE LONG_POINTERS 1 
.................... #ELSE  
.................... #DEFINE LONG_POINTERS 0 
.................... #ENDIF 
....................  
.................... typedef struct { 
....................    signed int quot; 
....................    signed int rem; 
.................... } div_t; 
....................  
.................... typedef struct { 
....................    signed long quot; 
....................    signed long rem; 
.................... } ldiv_t; 
....................  
.................... #include <stddef.h> 
.................... /////////////////////////////////////////////////////////////////////////// 
.................... ////        (C) Copyright 1996,2003 Custom Computer Services           //// 
.................... //// This source code may only be used by licensed users of the CCS C  //// 
.................... //// compiler.  This source code may only be distributed to other      //// 
.................... //// licensed users of the CCS C compiler.  No other use, reproduction //// 
.................... //// or distribution is permitted without written permission.          //// 
.................... //// Derivative programs created using this software in object code    //// 
.................... //// form are not restricted in any way.                               //// 
.................... /////////////////////////////////////////////////////////////////////////// 
....................  
.................... #ifndef _STDDEF 
....................  
.................... #define _STDDEF 
....................  
.................... #if sizeof(unsigned int8 *)==1 
.................... #define ptrdiff_t unsigned int8 
.................... #else 
.................... #define ptrdiff_t unsigned int16 
.................... #endif 
....................  
.................... #if defined(__PCB__) 
.................... #define size_t unsigned int8 
.................... #else 
.................... #define size_t unsigned int16 
.................... #endif 
.................... #define wchar_t char 
.................... #define NULL 0 
....................  
.................... #define offsetof(s,f) (offsetofbit(s,f)/8) 
....................  
.................... #endif 
....................  
....................  
.................... //--------------------------------------------------------------------------- 
.................... // String conversion functions 
.................... //--------------------------------------------------------------------------- 
....................  
.................... /* Standard template: signed int  atoi(char * s) 
....................  * converts the initial portion of the string s to a signed int 
....................  * returns the converted value if any, 0 otherwise 
....................  */ 
.................... signed int atoi(char *s); 
....................  
.................... /* Syntax: signed int32  atoi32(char * s) 
....................    converts the initial portion of the string s to a signed int32 
....................    returns the converted value if any, 0 otherwise*/ 
.................... #if (sizeof(long)==4) 
....................  #define atoi32(s) atol(s) 
.................... #else  
....................  signed int32 atoi32(char *s); 
.................... #endif 
....................  
.................... #if defined(__PCD__) 
.................... // The following functions only work on the 24 bit compiler 
.................... // for the 30F, 33F, 24F and 24H parts 
.................... /* Syntax: signed int48  atoi48(char * s) 
....................    converts the initial portion of the string s to a signed int48 
....................    returns the converted value if any, 0 otherwise*/ 
....................     
.................... signed int48 atoi48(char *s); 
....................  
.................... /* Syntax: signed int64  atoi64(char * s) 
....................    converts the initial portion of the string s to a signed int64 
....................    returns the converted value if any, 0 otherwise*/ 
.................... signed int64 atoi64(char *s); 
.................... #endif 
....................  
.................... /* Syntax: char *  itoa(signed int32 num, int8 base, char * s) 
....................    converts the signed int32 to a string and 
....................    returns the converted value if any, 0 otherwise*/ 
.................... char * itoa(signed int32 num, unsigned int base, char * s); 
....................  
.................... /* Standard template: signed int16  atol(char * s) 
....................  * converts the initial portion of the string s to a signed int16 
....................  * returns the converted value if any, 0 otherwise 
....................  */ 
.................... signed long atol(char *s); 
....................  
.................... /* Standard template: int16 strtoul(char * s,char *endptr,signed int base) 
....................  * converts the initial portion of the string s, represented as an 
....................  * integral value of radix base  to a signed long. 
....................  * Returns the converted value if any, 0 otherwise 
....................  * the final string is returned in the endptr, if endptr is not null 
....................  */ 
.................... signed long strtol(char *s,char *endptr, signed int base); 
....................  
.................... /* Standard template: int16 strtoul(char * s,char *endptr,signed int base) 
....................  * converts the initial portion of the string s, represented as an 
....................  * integral value of radix base to a unsigned long. 
....................  * returns the converted value if any, 0 otherwise 
....................  * the final string is returned in the endptr, if endptr is not null 
....................  */ 
.................... unsigned long strtoul(char *s,char *endptr, signed int base); 
....................  
.................... /* Standart template: float strtof(char * s,char *endptr) 
....................                       float48 strtof48(char *s,char *endptr); 
....................                       float64 strtod(char *s,char *endptr); 
....................  * converts the initial portion of the string s to a float32, float48 or float64, 
....................  * returns the converted value if any, 0 otherwise 
....................  * the final string is returned in the endptr, if endptr is not null                    
.................... */ 
.................... float strtof(char *s,char *endptr); 
.................... #if defined(__PCD__) 
.................... float48 strtof48(char *s,char *endptr); 
.................... float64 strtod(char *s,char *endptr); 
.................... #else 
.................... //provided for compatibility 
.................... #define strtof48(s, e) strtof(s, e) 
.................... #define strtod(s, e) strtof(s, e) 
.................... #endif 
....................  
.................... /* Standard template: float32 atof(char * s) 
....................  * converts the initial portion of the string s to a float. 
....................  * returns the converted value if any, 0 otherwise 
....................  */ 
.................... #define atof(s)   strtof(s, 0) 
....................  
.................... #if defined(__PCD__) 
.................... // The following functions only work on the 24 bit compiler 
.................... // for the 30F, 33F, 24F and 24H parts 
....................  
.................... /* Standard template: float48 atof48(char * s) 
....................  * converts the initial portion of the string s to a float. 
....................  * returns the converted value if any, 0 otherwise 
....................  */ 
.................... #define atof48(s) strtof48(s, 0) 
....................  
.................... /* Standard template: float64 atof64(char * s) 
....................  * converts the initial portion of the string s to a float. 
....................  * returns the converted value if any, 0 otherwise 
....................  */ 
.................... #define atof64(s) strtod(s, 0) 
.................... #endif 
....................  
.................... /* Standard template: float32 atoe(char * s) 
....................  * converts the initial portion of the string s to a float. 
....................  * returns the converted value if any, 0 otherwise 
....................  * also handles E format numbers 
....................  */ 
.................... #if !defined(__PCD__) 
.................... float atoe(char * s); 
.................... #endif 
....................  
.................... #if defined(__PCD__) 
.................... float32 atoe(char * s); 
.................... #endif 
....................  
.................... //--------------------------------------------------------------------------- 
.................... // Pseudo-random sequence generation functions 
.................... //--------------------------------------------------------------------------- 
....................  
.................... /* The rand function computes a sequence of pseudo-random integers in 
....................  * the range 0 to RAND_MAX 
....................  * 
....................  * Parameters: 
....................  *       (none) 
....................  * 
....................  * Returns: 
....................  *       The pseudo-random integer 
....................  */ 
.................... unsigned int16 rand(void); 
....................  
.................... /* The srand function uses the argument as a seed for a new sequence of 
....................  * pseudo-random numbers to be returned by subsequent calls to rand. 
....................  * 
....................  * Parameters: 
....................  *       [in] seed: The seed value to start from. You might need to pass 
....................  * 
....................  * Returns: 
....................  *       (none) 
....................  * 
....................  * Remarks 
....................  *          The srand function sets the starting point for generating 
....................  *       a series of pseudorandom integers. To reinitialize the 
....................  *       generator, use 1 as the seed argument. Any other value for 
....................  *       seed sets the generator to a random starting point. rand 
....................  *       retrieves the pseudorandom numbers that are generated. 
....................  *       Calling rand before any call to srand generates the same 
....................  *       sequence as calling srand with seed passed as 1. 
....................  *          Usually, you need to pass a time here from outer source 
....................  *       so that the numbers will be different every time you run. 
....................  */ 
.................... void srand(unsigned int32 seed); 
....................  
.................... //--------------------------------------------------------------------------- 
.................... // Memory management functions 
.................... //--------------------------------------------------------------------------- 
....................  
.................... // Comming soon 
....................  
.................... //--------------------------------------------------------------------------- 
.................... // Communication with the environment 
.................... //--------------------------------------------------------------------------- 
....................  
.................... /* The function returns 0 always 
....................  */ 
.................... signed int8 system(char *string); 
....................  
.................... //--------------------------------------------------------------------------- 
.................... // Searching and sorting utilities 
.................... //--------------------------------------------------------------------------- 
....................  
.................... /* Performs a binary search of a sorted array.. 
....................  * 
....................  * Parameters: 
....................  *       [in] key: Object to search for 
....................  *       [in] base: Pointer to base of search data 
....................  *       [in] num: Number of elements 
....................  *       [in] width: Width of elements 
....................  *       [in] compare: Function that compares two elements 
....................  * 
....................  * Returns: 
....................  *       bsearch returns a pointer to an occurrence of key in the array pointed 
....................  *       to by base. If key is not found, the function returns NULL. If the 
....................  *       array is not in order or contains duplicate records with identical keys, 
....................  *       the result is unpredictable. 
....................  */ 
.................... //void *bsearch(const void *key, const void *base, size_t num, size_t width, 
.................... //              int (*compare)(const void *, const void *)); 
....................  
.................... /* Performs the shell-metzner sort (not the quick sort algorithm). The contents 
....................  * of the array are sorted into ascending order according to a comparison 
....................  * function pointed to by compar. 
....................  * 
....................  * Parameters: 
....................  *       [in] base: Pointer to base of search data 
....................  *       [in] num: Number of elements 
....................  *       [in] width: Width of elements 
....................  *       [in] compare: Function that compares two elements 
....................  * 
....................  * Returns: 
....................  *       (none) 
....................  */ 
.................... //void *qsort(const void *base, size_t num, size_t width, 
.................... //              int (*compare)(const void *, const void *)); 
....................  
.................... //--------------------------------------------------------------------------- 
.................... // Integer arithmetic functions 
.................... //--------------------------------------------------------------------------- 
....................  
.................... #define labs abs 
....................  
.................... div_t div(signed int numer, signed int denom); 
.................... ldiv_t ldiv(signed long numer, signed long denom); 
....................  
.................... //--------------------------------------------------------------------------- 
.................... // Multibyte character functions 
.................... //--------------------------------------------------------------------------- 
....................  
.................... // Not supported 
....................  
.................... //--------------------------------------------------------------------------- 
.................... // Multibyte string functions 
.................... //--------------------------------------------------------------------------- 
....................  
.................... // Not supported 
....................  
....................  
.................... //--------------------------------------------------------------------------- 
.................... // Internal implementation 
.................... //--------------------------------------------------------------------------- 
....................  
.................... #include <stddef.h> 
.................... /////////////////////////////////////////////////////////////////////////// 
.................... ////        (C) Copyright 1996,2003 Custom Computer Services           //// 
.................... //// This source code may only be used by licensed users of the CCS C  //// 
.................... //// compiler.  This source code may only be distributed to other      //// 
.................... //// licensed users of the CCS C compiler.  No other use, reproduction //// 
.................... //// or distribution is permitted without written permission.          //// 
.................... //// Derivative programs created using this software in object code    //// 
.................... //// form are not restricted in any way.                               //// 
.................... /////////////////////////////////////////////////////////////////////////// 
....................  
.................... #ifndef _STDDEF 
....................  
.................... #define _STDDEF 
....................  
.................... #if sizeof(unsigned int8 *)==1 
.................... #define ptrdiff_t unsigned int8 
.................... #else 
.................... #define ptrdiff_t unsigned int16 
.................... #endif 
....................  
.................... #if defined(__PCB__) 
.................... #define size_t unsigned int8 
.................... #else 
.................... #define size_t unsigned int16 
.................... #endif 
.................... #define wchar_t char 
.................... #define NULL 0 
....................  
.................... #define offsetof(s,f) (offsetofbit(s,f)/8) 
....................  
.................... #endif 
....................  
.................... #include <string.h> 
.................... //////////////////////////////////////////////////////////////////////////// 
.................... ////        (C) Copyright 1996,2008 Custom Computer Services            //// 
.................... //// This source code may only be used by licensed users of the CCS C   //// 
.................... //// compiler.  This source code may only be distributed to other       //// 
.................... //// licensed users of the CCS C compiler.  No other use, reproduction  //// 
.................... //// or distribution is permitted without written permission.           //// 
.................... //// Derivative programs created using this software in object code     //// 
.................... //// form are not restricted in any way.                                //// 
.................... //////////////////////////////////////////////////////////////////////////// 
....................  
.................... #ifndef _STRING 
.................... #define _STRING 
.................... #include <stddef.h> 
.................... /////////////////////////////////////////////////////////////////////////// 
.................... ////        (C) Copyright 1996,2003 Custom Computer Services           //// 
.................... //// This source code may only be used by licensed users of the CCS C  //// 
.................... //// compiler.  This source code may only be distributed to other      //// 
.................... //// licensed users of the CCS C compiler.  No other use, reproduction //// 
.................... //// or distribution is permitted without written permission.          //// 
.................... //// Derivative programs created using this software in object code    //// 
.................... //// form are not restricted in any way.                               //// 
.................... /////////////////////////////////////////////////////////////////////////// 
....................  
.................... #ifndef _STDDEF 
....................  
.................... #define _STDDEF 
....................  
.................... #if sizeof(unsigned int8 *)==1 
.................... #define ptrdiff_t unsigned int8 
.................... #else 
.................... #define ptrdiff_t unsigned int16 
.................... #endif 
....................  
.................... #if defined(__PCB__) 
.................... #define size_t unsigned int8 
.................... #else 
.................... #define size_t unsigned int16 
.................... #endif 
.................... #define wchar_t char 
.................... #define NULL 0 
....................  
.................... #define offsetof(s,f) (offsetofbit(s,f)/8) 
....................  
.................... #endif 
....................  
.................... #include <ctype.h> 
.................... //////////////////////////////////////////////////////////////////////////// 
.................... ////        (C) Copyright 1996,2003 Custom Computer Services            //// 
.................... //// This source code may only be used by licensed users of the CCS C   //// 
.................... //// compiler.  This source code may only be distributed to other       //// 
.................... //// licensed users of the CCS C compiler.  No other use, reproduction  //// 
.................... //// or distribution is permitted without written permission.           //// 
.................... //// Derivative programs created using this software in object code     //// 
.................... //// form are not restricted in any way.                                //// 
.................... //////////////////////////////////////////////////////////////////////////// 
....................  
.................... #ifndef _CTYPE 
.................... #define _CTYPE 
....................  
.................... #define islower(x)  isamong(x,"abcdefghijklmnopqrstuvwxyz") 
.................... #define isupper(x)  isamong(x,"ABCDEFGHIJKLMNOPQRSTUVWXYZ") 
.................... #define isalnum(x)  isamong(x,"0123456789ABCDEFGHIJKLMNOPQRSTUVWXYZabcdefghijklmnopqrstuvwxyz") 
.................... #define isalpha(x)  isamong(x,"ABCDEFGHIJKLMNOPQRSTUVWXYZabcdefghijklmnopqrstuvwxyz") 
.................... #define isdigit(x)  isamong(x,"0123456789") 
.................... #define isspace(x)  ((x)==' ') 
.................... #define isxdigit(x) isamong(x,"0123456789ABCDEFabcdef") 
.................... #define iscntrl(x)  ((x)<' ') 
.................... #define isprint(x)  ((x)>=' ') 
.................... #define isgraph(x)  ((x)>' ') 
.................... #define ispunct(x)  (((x)>' ')&&!isalnum(x)) 
....................  
.................... #endif 
....................  
....................  
....................  
....................  
....................  
.................... ////////////////////////////////////////////// 
.................... //// Uncomment the following define to    //// 
.................... //// allow some functions to use a        //// 
.................... //// quicker algorithm, but use more ROM  //// 
.................... ////                                      //// 
.................... //// #define FASTER_BUT_MORE_ROM          //// 
.................... ////////////////////////////////////////////// 
....................  
....................  
....................  
.................... /*Copying functions*/ 
.................... /* standard template: 
....................    void *memmove(void *s1, void *s2, size_t n). 
....................    Copies max of n characters safely (not following ending '\0') 
....................    from s2 in s1; if s2 has less than n characters, appends 0 */ 
....................  
.................... char *memmove(void *s1,char *s2,size_t n) 
.................... { 
....................    char *sc1; 
....................    char *sc2; 
....................    sc1=s1; 
....................    sc2=s2; 
....................    if(sc2<sc1 && sc1 <sc2 +n) 
....................       for(sc1+=n,sc2+=n;0<n;--n) 
....................          *--sc1=*--sc2; 
....................    else 
....................       for(;0<n;--n) 
....................          *sc1++=*sc2++; 
....................   return s1; 
....................   } 
....................  
.................... /* Standard template: char *strcpy(char *s1, const char *s2) 
....................    copies the string s2 including the null character to s1. 
....................    This is a compiler built in to handle the different address 
....................    spaces */ 
....................  
.................... #define strcopy strcpy 
....................  
.................... /* standard template: 
....................    char *strncpy(char *s1, const char *s2, size_t n). 
....................    Copies max of n characters (not following ending '\0') 
....................    from s2 in s1; if s2 has less than n characters, appends 0 */ 
....................  
.................... char *strncpy(char *s1, char *s2, size_t n) 
.................... { 
....................   char *s; 
....................  
....................   for (s = s1; n > 0 && *s2 != '\0'; n--) 
....................      *s++ = *s2++; 
....................   for (; n > 0; n--) 
....................      *s++ = '\0'; 
....................  
....................   return(s1); 
.................... } 
.................... /***********************************************************/ 
....................  
.................... /*concatenation functions*/ 
.................... /* standard template: char *strcat(char *s1, const char *s2) 
.................... appends s2 to s1*/ 
....................  
.................... char *strcat(char *s1, char *s2) 
.................... { 
....................    char *s; 
....................  
....................    for (s = s1; *s != '\0'; ++s); 
....................    while(*s2 != '\0') 
....................    { 
....................       *s = *s2; 
....................       ++s; 
....................       ++s2; 
....................    } 
....................  
....................    *s = '\0'; 
....................    return(s1); 
.................... } 
.................... /* standard template: char *strncat(char *s1, char *s2,size_t n) 
.................... appends not more than n characters from s2 to s1*/ 
....................  
.................... char *strncat(char *s1, char *s2, size_t n) 
.................... { 
....................    char *s; 
....................  
....................    for (s = s1; *s != '\0'; ++s); 
....................    while(*s2 != '\0' && 0<n) 
....................    { 
....................       *s = *s2; 
....................       ++s; 
....................       ++s2; 
....................       --n; 
....................    } 
....................  
....................    *s = '\0'; 
....................    return(s1); 
.................... } 
....................  
.................... /***********************************************************/ 
....................  
....................  
.................... /*comparison functions*/ 
.................... /* standard template: signed int memcmp(void *s1, void *s2). 
....................    Compares s1 & s2; returns -1 if s1<s2, 0 if s1=s2, 1 if s1>s2 */ 
....................  
.................... signed int8 memcmp(void * s1,char *s2,size_t n) 
.................... { 
.................... char *su1, *su2; 
.................... for(su1=s1, su2=s2; 0<n; ++su1, ++su2, --n) 
.................... { 
....................    if(*su1!=*su2) 
....................       return ((*su1<*su2)?-1:+1); 
.................... } 
.................... return 0; 
.................... } 
....................  
.................... /* standard template: int strcmp(const char *s1, const char *s2). 
....................    Compares s1 & s2; returns -1 if s1<s2, 0 if s1=s2, 1 if s1>s2 */ 
....................  
.................... signed int8 strcmp(char *s1, char *s2) 
.................... { 
....................    for (; *s1 == *s2; s1++, s2++) 
....................       if (*s1 == '\0') 
....................          return(0); 
....................    return((*s1 < *s2) ? -1: 1); 
.................... } 
.................... /* standard template: int strcoll(const char *s1, const char *s2). 
....................    Compares s1 & s2; returns -1 if s1<s2, 0 if s1=s2, 1 if s1>s2 */ 
....................  
.................... signed int8 strcoll(char *s1, char *s2) 
.................... { 
....................    for (; *s1 == *s2; s1++, s2++) 
....................       if (*s1 == '\0') 
....................          return(0); 
....................    return((*s1 < *s2) ? -1: 1); 
.................... } 
....................  
.................... /* standard template: 
....................    int strncmp(const char *s1, const char *s2, size_t n). 
....................    Compares max of n characters (not following 0) from s1 to s2; 
....................    returns same as strcmp */ 
....................  
.................... signed int8 strncmp(char *s1, char *s2, size_t n) 
.................... { 
....................    for (; n > 0; s1++, s2++, n--) 
*
02980:  MOVLB  9
02982:  MOVF   xE3,F
02984:  BNZ   298A
02986:  MOVF   xE4,F
02988:  BZ    2A0E
....................       if (*s1 != *s2) 
0298A:  MOVFF  9DF,FE9
0298E:  MOVFF  9E0,FEA
02992:  MOVFF  FEF,9E5
02996:  MOVFF  9E2,03
0299A:  MOVFF  9E1,FE9
0299E:  MOVFF  9E2,FEA
029A2:  MOVF   FEF,W
029A4:  SUBWF  xE5,W
029A6:  BZ    29D6
....................          return((*s1 <*s2) ? -1: 1); 
029A8:  MOVFF  9E0,03
029AC:  MOVFF  9DF,FE9
029B0:  MOVFF  9E0,FEA
029B4:  MOVFF  FEF,9E5
029B8:  MOVFF  9E2,03
029BC:  MOVFF  9E1,FE9
029C0:  MOVFF  9E2,FEA
029C4:  MOVF   FEF,W
029C6:  SUBWF  xE5,W
029C8:  BC    29CE
029CA:  MOVLW  FF
029CC:  BRA    29D0
029CE:  MOVLW  01
029D0:  MOVWF  01
029D2:  BRA    2A12
....................       else if (*s1 == '\0') 
029D4:  BRA    29EC
029D6:  MOVFF  9E0,03
029DA:  MOVFF  9DF,FE9
029DE:  MOVFF  9E0,FEA
029E2:  MOVF   FEF,F
029E4:  BNZ   29EC
....................          return(0); 
029E6:  MOVLW  00
029E8:  MOVWF  01
029EA:  BRA    2A12
029EC:  MOVFF  9E0,03
029F0:  MOVF   xDF,W
029F2:  INCF   xDF,F
029F4:  BTFSC  FD8.2
029F6:  INCF   xE0,F
029F8:  MOVFF  9E2,03
029FC:  MOVF   xE1,W
029FE:  INCF   xE1,F
02A00:  BTFSC  FD8.2
02A02:  INCF   xE2,F
02A04:  MOVF   xE3,W
02A06:  BTFSC  FD8.2
02A08:  DECF   xE4,F
02A0A:  DECF   xE3,F
02A0C:  BRA    2982
....................    return(0); 
02A0E:  MOVLW  00
02A10:  MOVWF  01
.................... } 
02A12:  MOVLB  0
02A14:  GOTO   2AE8 (RETURN)
.................... /* standard template: 
....................    int strxfrm(const char *s1, const char *s2, size_t n). 
....................    transforms maximum of n characters from s2 and places them into s1*/ 
.................... size_t strxfrm(char *s1, char *s2, size_t n) 
.................... { 
....................   char *s; 
....................   unsigned int8 n1; 
....................   n1=n; 
....................   for (s = s1; n > 0 && *s2 != '\0'; n--) 
....................      *s++ = *s2++; 
....................   for (; n > 0; n--) 
....................      *s++ = '\0'; 
....................  
....................   return(n1); 
.................... } 
....................  
....................  
....................  
....................  
....................  
.................... /***********************************************************/ 
.................... /*Search functions*/ 
.................... /* standard template: void *memchr(const char *s, int c). 
....................    Finds first occurrence of c in n characters of s */ 
....................  
.................... char *memchr(void *s,unsigned int8 c,size_t n) 
.................... { 
....................    char uc; 
....................    char *su; 
....................    uc=c; 
....................    for(su=s;0<n;++su,--n) 
....................       if(*su==uc) 
....................       return su; 
....................    return NULL; 
.................... } 
....................  
.................... /* standard template: char *strchr(const char *s, int c). 
....................    Finds first occurrence of c in s */ 
....................  
.................... char *strchr(char *s, unsigned int8 c) 
.................... { 
....................    for (; *s != c; s++) 
....................       if (*s == '\0') 
....................          return(0); 
....................    return(s); 
.................... } 
.................... /* standard template: 
....................    size_t strcspn(const char *s1, const char *s2). 
....................    Computes length of max initial segment of s1 that 
....................    consists entirely of characters NOT from s2*/ 
....................  
.................... unsigned int8  strcspn(char *s1, char *s2) 
.................... { 
....................    char *sc1, *sc2; 
....................  
....................    for (sc1 = s1; *sc1 != 0; sc1++) 
....................       for (sc2 = s2; *sc2 != 0; sc2++) 
....................          if (*sc1 == *sc2) 
....................             return(sc1 - s1); 
....................    return(sc1 - s1); 
.................... } 
.................... /* standard template: 
....................    char *strpbrk(const char *s1, const char *s2). 
....................    Locates first occurence of any character from s2 in s1; 
....................    returns s1 if s2 is empty string */ 
....................  
.................... char *strpbrk(char *s1, char *s2) 
.................... { 
....................    char *sc1, *sc2; 
....................  
....................    for (sc1 = s1; *sc1 != 0; sc1++) 
....................       for (sc2 = s2; *sc2 != 0; sc2++) 
....................          if (*sc1 == *sc2) 
....................             return(sc1); 
....................    return(0); 
.................... } 
....................  
....................  
.................... /* standard template: char *strrchr(const char *s, int c). 
....................    Finds last occurrence of c in s */ 
....................  
.................... char *strrchr(char *s, unsigned int8 c) 
.................... { 
....................    char *p; 
....................  
....................    for (p = 0; ; s++) 
....................    { 
....................       if (*s == c) 
....................          p = s; 
....................       if (*s == '\0') 
....................          return(p); 
....................    } 
.................... } 
.................... /* computes length of max initial segment of s1 consisting 
....................    entirely of characters from s2 */ 
....................  
.................... unsigned int8  strspn(char *s1, char *s2) 
.................... { 
....................    char *sc1, *sc2; 
....................  
....................    for (sc1 = s1; *sc1 != 0; sc1++) 
....................       for (sc2 = s2; ; sc2++) 
....................     if (*sc2 == '\0') 
....................        return(sc1 - s1); 
....................          else if (*sc1 == *sc2) 
....................             break; 
....................    return(sc1 - s1); 
.................... } 
.................... /* standard template: 
....................    char *strstr(const char *s1, const char *s2); 
....................    Locates first occurence of character sequence s2 in s1; 
....................    returns 0 if s2 is empty string 
....................  
....................    Uncomment #define FASTER_BUT_MORE_ROM at the top of the 
....................    file to use the faster algorithm */ 
.................... char *strstr(char *s1, char *s2) 
.................... { 
....................    char *s, *t; 
....................  
....................    #ifdef FASTER_BUT_MORE_ROM 
....................    if (*s2 == '\0') 
....................          return(s1); 
....................    #endif 
....................  
....................    while (*s1) 
....................    { 
....................       for(s = s1, t = s2; *t && (*s == *t); ++s, ++t); 
....................  
....................       if (*t == '\0') 
....................          return s1; 
....................       ++s1; 
....................       #ifdef FASTER_BUT_MORE_ROM 
....................          while(*s1 != '\0' && *s1 != *s2) 
....................             ++s1; 
....................       #endif 
....................    } 
....................    return 0; 
.................... } 
....................  
.................... /* standard template: char *strtok(char *s1, const char *s2). 
....................  
....................    Finds next token in s1 delimited by a character from separator 
....................    string s2 (which can be different from call to call).  First call 
....................    starts at beginning of s1 searching for first character NOT 
....................    contained in s2; returns 0 if none is found. 
....................    If one is found, it is the start of first token (return value). 
....................    Function then searches from there for a character contained in s2. 
....................    If none is found, current token extends to end of s1, and subsequent 
....................    searches for a token will return 0.  If one is found, it is 
....................    overwritten by '\0', which terminates current token.  Function saves 
....................    pointer to following character from which next search will start. 
....................    Each subsequent call, with 0 as first argument, starts searching 
....................    from saved pointer */ 
....................  
.................... char *strtok(char *s1, char *s2) 
.................... { 
....................    char *beg, *end; 
....................    static char *save; 
....................  
....................    beg = (s1)? s1: save; 
....................    beg += strspn(beg, s2); 
....................    if (*beg == '\0') 
....................    { 
....................       *save = ' '; 
....................       return(0); 
....................    } 
....................    end = strpbrk(beg, s2); 
....................    if (*end != '\0') 
....................    { 
....................       *end = '\0'; 
....................       end++; 
....................    } 
....................    save = end; 
....................    return(beg); 
.................... } 
....................  
.................... /*****************************************************************/ 
.................... /*Miscellaneous functions*/ 
.................... /* standard template 
.................... maps error number in errnum to an error message string 
.................... Returns: Pointer to string 
.................... */ 
.................... #ifdef _ERRNO 
.................... char * strerror(unsigned int8 errnum) 
.................... { 
.................... static char s[13]; 
.................... switch( errnum) 
.................... { 
.................... case 0: 
....................    strcpy(s,"no errors"); 
....................    return s; 
.................... case EDOM : 
....................    strcpy(s,"domain error"); 
....................    return s; 
.................... case ERANGE: 
....................    strcpy(s,"range error"); 
....................    return s; 
.................... } 
.................... } 
.................... #ENDIF 
.................... /* standard template: size_t strlen(const char *s). 
....................    Computes length of s1 (preceding terminating 0) */ 
....................  
.................... unsigned int8 strlen(char *s) 
.................... { 
....................    char *sc; 
....................  
....................    for (sc = s; *sc != 0; sc++); 
....................    return(sc - s); 
.................... } 
....................  
.................... /* standard template: size_t stricmp(const char *s1, const char *s2). 
....................    Compares s1 to s2 ignoring case (upper vs. lower) */ 
....................  
.................... signed int8 stricmp(char *s1, char *s2) 
.................... { 
....................  for(; *s1==*s2||(isalpha(*s1)&&isalpha(*s2)&&(*s1==*s2+32||*s2==*s1+32)); 
....................     s1++, s2++) 
....................     if (*s1 == '\0') 
....................        return(0); 
....................  return((*s1 < *s2) ? -1: 1); 
.................... } 
....................  
....................  
.................... /* standard template: char *strlwr(char *s). 
....................    Replaces uppercase letters by lowercase; 
....................    returns pointer to new string s */ 
....................  
.................... char *strlwr(char *s) 
.................... { 
....................    char *p; 
....................  
....................    for (p = s; *p != '\0'; p++) 
....................       if (*p >= 'A' && *p <='Z') 
....................          *p += 'a' - 'A'; 
....................    return(s); 
.................... } 
....................  
.................... /* standard template: char *strupr(char *s). 
....................    Replaces lowercase letters by upercase; 
....................    returns pointer to new string s */ 
....................  
.................... char *strupr(char *s) 
.................... { 
....................    char *p; 
....................  
....................    for (p = s; *p != '\0'; p++) 
....................       if (*p >= 'a' && *p <='z') 
....................          *p -= 'a' - 'A'; 
....................    return(s); 
.................... } 
....................  
....................  
.................... /************************************************************/ 
....................  
....................  
.................... #endif 
....................  
....................  
.................... div_t div(signed int numer, signed int denom) 
.................... { 
....................    div_t val; 
....................    val.quot = numer / denom; 
....................    val.rem = numer - (denom * val.quot); 
....................    return (val); 
.................... } 
....................  
.................... ldiv_t ldiv(signed long numer, signed long denom) 
.................... { 
....................    ldiv_t val; 
....................  
....................    val.quot = numer / denom; 
....................    val.rem = numer - (denom * val.quot); 
....................    return (val); 
.................... } 
....................  
.................... #if defined(__PCD__) 
.................... float32 atoe(char * s) 
.................... { 
....................    float32 pow10 = 1.0; 
....................    float32 result = 0.0; 
....................    unsigned int8 sign = 0; 
....................    unsigned int8 expsign = 0; 
....................    char c; 
....................    unsigned int8 ptr = 0; 
....................    unsigned int8 i; 
....................    float32 exp = 1.0; 
....................    unsigned int8 expcnt = 0; 
....................  
....................    c = s[ptr++]; 
....................  
....................    if ((c>='0' && c<='9') || c=='+' || c=='-' || c=='.' || c=='E' || c=='e') { 
....................       if(c == '-') { 
....................          sign = 1; 
....................          c = s[ptr++]; 
....................       } 
....................       if(c == '+') 
....................          c = s[ptr++]; 
....................  
....................       while((c >= '0' && c <= '9')) { 
....................          result = 10*result + c - '0'; 
....................          c = s[ptr++]; 
....................       } 
....................  
....................       if (c == '.') { 
....................          c = s[ptr++]; 
....................          while((c >= '0' && c <= '9')) { 
....................              pow10 = pow10*10; 
....................              result += (c - '0')/pow10; 
....................              c = s[ptr++]; 
....................          } 
....................       } 
....................  
....................       // Handling the exponent 
....................       if (c=='e' || c=='E') { 
....................          c = s[ptr++]; 
....................  
....................          if(c == '-') { 
....................             expsign = 1; 
....................             c = s[ptr++]; 
....................          } 
....................          if(c == '+') 
....................             c = s[ptr++]; 
....................  
....................          while((c >= '0' && c <= '9')) { 
....................             expcnt = 10*expcnt + c - '0'; 
....................             c = s[ptr++]; 
....................          } 
....................  
....................          for(i=0;i<expcnt;i++) 
....................             exp*=10; 
....................  
....................          if(expsign==1) 
....................             result/=exp; 
....................          else 
....................             result*=exp; 
....................       } 
....................    } 
....................  
....................    if (sign == 1) 
....................       result = -1*result; 
....................    return(result); 
.................... } 
.................... #endif 
....................  
.................... #if !defined(__PCD__) 
.................... float atoe(char * s) 
.................... { 
....................    float pow10 = 1.0; 
....................    float result = 0.0; 
....................    unsigned int8 sign = 0; 
....................    unsigned int8 expsign = 0; 
....................    char c; 
....................    unsigned int8 ptr = 0; 
....................    unsigned int8 i; 
....................    float exp = 1.0; 
....................    unsigned int8 expcnt = 0; 
....................  
....................    c = s[ptr++]; 
....................  
....................    if ((c>='0' && c<='9') || c=='+' || c=='-' || c=='.' || c=='E' || c=='e') { 
....................       if(c == '-') { 
....................          sign = 1; 
....................          c = s[ptr++]; 
....................       } 
....................       if(c == '+') 
....................          c = s[ptr++]; 
....................  
....................       while((c >= '0' && c <= '9')) { 
....................          result = 10*result + c - '0'; 
....................          c = s[ptr++]; 
....................       } 
....................  
....................       if (c == '.') { 
....................          c = s[ptr++]; 
....................          while((c >= '0' && c <= '9')) { 
....................              pow10 = pow10*10; 
....................              result += (c - '0')/pow10; 
....................              c = s[ptr++]; 
....................          } 
....................       } 
....................  
....................       // Handling the exponent 
....................       if (c=='e' || c=='E') { 
....................          c = s[ptr++]; 
....................  
....................          if(c == '-') { 
....................             expsign = 1; 
....................             c = s[ptr++]; 
....................          } 
....................          if(c == '+') 
....................             c = s[ptr++]; 
....................  
....................          while((c >= '0' && c <= '9')) { 
....................             expcnt = 10*expcnt + c - '0'; 
....................             c = s[ptr++]; 
....................          } 
....................  
....................          for(i=0;i<expcnt;i++) 
....................             exp*=10; 
....................  
....................          if(expsign==1) 
....................             result/=exp; 
....................          else 
....................             result*=exp; 
....................       } 
....................    } 
....................  
....................    if (sign == 1) 
....................       result = -1*result; 
....................    return(result); 
.................... } 
.................... #endif 
....................  
.................... signed int atoi(char *s) 
.................... { 
....................    signed int result; 
....................    unsigned int sign, base, index; 
....................    char c; 
....................  
....................    index = 0; 
....................    sign = 0; 
....................    base = 10; 
....................    result = 0; 
....................  
....................    if (!s) 
....................       return 0; 
....................    // Omit all preceeding alpha characters 
....................    c = s[index++]; 
....................  
....................    // increase index if either positive or negative sign is detected 
....................    if (c == '-') 
....................    { 
....................       sign = 1;         // Set the sign to negative 
....................       c = s[index++]; 
....................    } 
....................    else if (c == '+') 
....................    { 
....................       c = s[index++]; 
....................    } 
....................  
....................    if (c >= '0' && c <= '9') 
....................    { 
....................  
....................       // Check for hexa number 
....................       if (c == '0' && (s[index] == 'x' || s[index] == 'X')) 
....................       { 
....................          base = 16; 
....................          index++; 
....................          c = s[index++]; 
....................       } 
....................  
....................       // The number is a decimal number 
....................       if (base == 10) 
....................       { 
....................          while (c >= '0' && c <= '9') 
....................          { 
....................             result = 10*result + (c - '0'); 
....................             c = s[index++]; 
....................          } 
....................       } 
....................       else if (base == 16)    // The number is a hexa number 
....................       { 
....................          c = toupper(c); 
....................          while ( (c >= '0' && c <= '9') || (c >= 'A' && c<='F')) 
....................          { 
....................             if (c >= '0' && c <= '9') 
....................                result = (result << 4) + (c - '0'); 
....................             else 
....................                result = (result << 4) + (c - 'A' + 10); 
....................  
....................             c = s[index++]; 
....................             c = toupper(c); 
....................          } 
....................       } 
....................    } 
....................  
....................    if (sign == 1 && base == 10) 
....................        result = -result; 
....................  
....................    return(result); 
.................... } 
....................  
.................... signed long atol(char *s) 
.................... { 
....................    signed long result; 
....................    unsigned int sign, base, index; 
....................    char c; 
....................  
....................    index = 0; 
....................    sign = 0; 
....................    base = 10; 
....................    result = 0; 
....................  
....................    if (!s) 
....................       return 0; 
....................    c = s[index++]; 
....................  
....................    // increase index if either positive or negative sign is detected 
....................    if (c == '-') 
....................    { 
....................       sign = 1;         // Set the sign to negative 
....................       c = s[index++]; 
....................    } 
....................    else if (c == '+') 
....................    { 
....................       c = s[index++]; 
....................    } 
....................  
....................    if (c >= '0' && c <= '9') 
....................    { 
....................       if (c == '0' && (s[index] == 'x' || s[index] == 'X')) 
....................       { 
....................          base = 16; 
....................          index++; 
....................          c = s[index++]; 
....................       } 
....................  
....................       // The number is a decimal number 
....................       if (base == 10) 
....................       { 
....................          while (c >= '0' && c <= '9') 
....................          { 
....................             result = 10*result + (c - '0'); 
....................             c = s[index++]; 
....................          } 
....................       } 
....................       else if (base == 16)    // The number is a hexa number 
....................       { 
....................          c = toupper(c); 
....................          while ( (c >= '0' && c <= '9') || (c >= 'A' && c <='F')) 
....................          { 
....................             if (c >= '0' && c <= '9') 
....................                result = (result << 4) + (c - '0'); 
....................             else 
....................                result = (result << 4) + (c - 'A' + 10); 
....................  
....................             c = s[index++];c = toupper(c); 
....................          } 
....................       } 
....................    } 
....................  
....................    if (base == 10 && sign == 1) 
....................       result = -result; 
....................  
....................    return(result); 
.................... } 
....................  
.................... /* A fast routine to multiply by 10 
....................  */ 
.................... signed int32 mult_with10(int32 num) 
.................... { 
....................    return ( (num << 1) + (num << 3) ); 
.................... } 
....................  
.................... #if sizeof(long)==2 
.................... signed int32 atoi32(char *s) 
.................... { 
....................    signed int32 result; 
....................    int8 sign, base, index; 
....................    char c; 
....................  
....................    index = 0; 
....................    sign = 0; 
....................    base = 10; 
....................    result = 0; 
....................  
....................    if (!s) 
....................       return 0; 
....................    c = s[index++]; 
....................  
....................    // increase index if either positive or negative sign is detected 
....................    if (c == '-') 
....................    { 
....................       sign = 1;         // Set the sign to negative 
....................       c = s[index++]; 
....................    } 
....................    else if (c == '+') 
....................    { 
....................       c = s[index++]; 
....................    } 
....................  
....................    if (c >= '0' && c <= '9') 
....................    { 
....................       if (c == '0' && (s[index] == 'x' || s[index] == 'X')) 
....................       { 
....................          base = 16; 
....................          index++; 
....................          c = s[index++]; 
....................       } 
....................  
....................       // The number is a decimal number 
....................       if (base == 10) 
....................       { 
....................          while (c >= '0' && c <= '9') { 
....................             result = (result << 1) + (result << 3);  // result *= 10; 
....................             result += (c - '0'); 
....................             c = s[index++]; 
....................          } 
....................       } 
....................       else if (base == 16)    // The number is a hexa number 
....................       { 
....................          c = toupper(c); 
....................          while ((c >= '0' && c <= '9') || (c >= 'A' && c <='F')) 
....................          { 
....................             if (c >= '0' && c <= '9') 
....................                result = (result << 4) + (c - '0'); 
....................             else 
....................                result = (result << 4) + (c - 'A' + 10); 
....................  
....................             c = s[index++];c = toupper(c); 
....................          } 
....................       } 
....................    } 
....................  
....................    if (base == 10 && sign == 1) 
....................       result = -result; 
....................  
....................    return(result); 
.................... } 
.................... #endif 
....................  
.................... #if defined(__PCD__) 
....................  
.................... signed int48 atoi48(char *s) 
.................... { 
....................    signed int48 result; 
....................    int8 sign, base, index; 
....................    char c; 
....................  
....................    index = 0; 
....................    sign = 0; 
....................    base = 10; 
....................    result = 0; 
....................  
....................    if (!s) 
....................       return 0; 
....................    c = s[index++]; 
....................  
....................    // increase index if either positive or negative sign is detected 
....................    if (c == '-') 
....................    { 
....................       sign = 1;         // Set the sign to negative 
....................       c = s[index++]; 
....................    } 
....................    else if (c == '+') 
....................    { 
....................       c = s[index++]; 
....................    } 
....................  
....................    if (c >= '0' && c <= '9') 
....................    { 
....................       if (c == '0' && (s[index] == 'x' || s[index] == 'X')) 
....................       { 
....................          base = 16; 
....................          index++; 
....................          c = s[index++]; 
....................       } 
....................  
....................       // The number is a decimal number 
....................       if (base == 10) 
....................       { 
....................          while (c >= '0' && c <= '9') { 
....................             result = (result << 1) + (result << 3);  // result *= 10; 
....................             result += (c - '0'); 
....................             c = s[index++]; 
....................          } 
....................       } 
....................       else if (base == 16)    // The number is a hexa number 
....................       { 
....................          c = toupper(c); 
....................          while ((c >= '0' && c <= '9') || (c >= 'A' && c <='F')) 
....................          { 
....................             if (c >= '0' && c <= '9') 
....................                result = (result << 4) + (c - '0'); 
....................             else 
....................                result = (result << 4) + (c - 'A' + 10); 
....................  
....................             c = s[index++];c = toupper(c); 
....................          } 
....................       } 
....................    } 
....................  
....................    if (base == 10 && sign == 1) 
....................       result = -result; 
....................  
....................    return(result); 
.................... } 
....................  
.................... signed int64 atoi64(char *s) 
.................... { 
....................    signed int64 result; 
....................    int8 sign, base, index; 
....................    char c; 
....................  
....................    index = 0; 
....................    sign = 0; 
....................    base = 10; 
....................    result = 0; 
....................  
....................    if (!s) 
....................       return 0; 
....................    c = s[index++]; 
....................  
....................    // increase index if either positive or negative sign is detected 
....................    if (c == '-') 
....................    { 
....................       sign = 1;         // Set the sign to negative 
....................       c = s[index++]; 
....................    } 
....................    else if (c == '+') 
....................    { 
....................       c = s[index++]; 
....................    } 
....................  
....................    if (c >= '0' && c <= '9') 
....................    { 
....................       if (c == '0' && (s[index] == 'x' || s[index] == 'X')) 
....................       { 
....................          base = 16; 
....................          index++; 
....................          c = s[index++]; 
....................       } 
....................  
....................       // The number is a decimal number 
....................       if (base == 10) 
....................       { 
....................          while (c >= '0' && c <= '9') { 
....................             result = (result << 1) + (result << 3);  // result *= 10; 
....................             result += (c - '0'); 
....................             c = s[index++]; 
....................          } 
....................       } 
....................       else if (base == 16)    // The number is a hexa number 
....................       { 
....................          c = toupper(c); 
....................          while ((c >= '0' && c <= '9') || (c >= 'A' && c <='F')) 
....................          { 
....................             if (c >= '0' && c <= '9') 
....................                result = (result << 4) + (c - '0'); 
....................             else 
....................                result = (result << 4) + (c - 'A' + 10); 
....................  
....................             c = s[index++];c = toupper(c); 
....................          } 
....................       } 
....................    } 
....................  
....................    if (base == 10 && sign == 1) 
....................       result = -result; 
....................  
....................    return(result); 
.................... } 
.................... #endif 
....................  
.................... char * itoa(signed int32 num, unsigned int base, char * s) 
.................... { 
....................      unsigned int32 temp=1; 
....................      unsigned int8 i,sign=0,cnt=0; 
....................      char c; 
....................  
....................      if(num<0) { 
....................          sign=1;        // Check for negative number 
....................          num*=-1; 
....................      } 
....................  
....................      while(temp>0) { 
....................          temp=(num/base); 
....................          s[cnt]=(num%base)+'0';    // Conversion 
....................  
....................          if(s[cnt]>0x39) 
....................             s[cnt]+=0x7; 
....................  
....................          cnt++; 
....................          num=temp; 
....................      } 
....................  
....................      if(sign==1) { 
....................          s[cnt]=0x2D;      // Negative sign 
....................          cnt++; 
....................      } 
....................  
....................      for(i = 0;i<(int8)(cnt/2);i++) { 
....................  
....................          c=s[i]; 
....................          s[i]=s[cnt-i-1];        // Reverse the number 
....................          s[cnt-i-1]=c; 
....................      } 
....................      s[cnt]='\0';     // End the string 
....................      return s; 
.................... } 
....................  
.................... #if defined(__PCD__) 
....................  
.................... char * itoa(signed int48 num, unsigned int base, char * s) 
.................... { 
....................      unsigned int48 temp=1; 
....................      unsigned int8 i,sign=0,cnt=0; 
....................      char c; 
....................  
....................      if(num<0) { 
....................          sign=1;        // Check for negative number 
....................          num*=-1; 
....................      } 
....................  
....................      while(temp>0) { 
....................          temp=(num/base); 
....................          s[cnt]=(num%base)+'0';    // Conversion 
....................  
....................          if(s[cnt]>0x39) 
....................             s[cnt]+=0x7; 
....................  
....................          cnt++; 
....................          num=temp; 
....................      } 
....................  
....................      if(sign==1) { 
....................          s[cnt]=0x2D;      // Negative sign 
....................          cnt++; 
....................      } 
....................  
....................      for(i = 0;i<(int8)(cnt/2);i++) { 
....................  
....................          c=s[i]; 
....................          s[i]=s[cnt-i-1];        // Reverse the number 
....................          s[cnt-i-1]=c; 
....................      } 
....................      s[cnt]='\0';     // End the string 
....................      return s; 
.................... } 
....................  
.................... char * itoa(signed int64 num, unsigned int base, char * s) 
.................... { 
....................      unsigned int64 temp=1; 
....................      unsigned int8 i,sign=0,cnt=0; 
....................      char c; 
....................       
....................      if(num<0) { 
....................          sign=1;        // Check for negative number 
....................          num*=-1;         
....................      } 
....................  
....................      while(temp>0) { 
....................          temp=(num/base); 
....................          s[cnt]=(num%base)+'0';    // Conversion 
....................  
....................          if(s[cnt]>0x39) 
....................             s[cnt]+=0x7; 
....................              
....................          cnt++; 
....................          num=temp; 
....................      } 
....................  
....................      if(sign==1) { 
....................          s[cnt]=0x2D;      // Negative sign 
....................          cnt++; 
....................      } 
....................  
....................      for(i = 0;i<(int8)(cnt/2);i++) { 
....................  
....................          c=s[i]; 
....................          s[i]=s[cnt-i-1];        // Reverse the number 
....................          s[cnt-i-1]=c; 
....................      } 
....................      s[cnt]='\0';     // End the string 
....................      return s; 
.................... } 
....................  
.................... #endif 
....................  
.................... float strtof(char *s, char *endptr) 
.................... { 
....................    float pow10 = 1.0; 
....................    float result = 0.0; 
....................    int1 skip = 1, sign = 0, point = 0; 
....................    char c; 
....................    unsigned int8 ptr = 0; 
....................  
....................    if (!s) 
....................       return 0; 
....................  
....................    for(c=s[ptr++]; c!=0; c=s[ptr++]) 
....................    { 
....................       if (skip && !isspace(c)) 
....................       { 
....................          skip = 0; 
....................          if (c == '+') 
....................          { 
....................             sign = 0; 
....................             continue; 
....................          }             
....................          else if (c == '-') 
....................          { 
....................             sign = 1; 
....................             continue; 
....................          } 
....................       } 
....................       if (!skip && (c == '.') && !point) 
....................          point = 1; 
....................       else if (!skip && isdigit(c)) 
....................       { 
....................          c -= '0'; 
....................          if (point) 
....................          { 
....................             pow10 = pow10 * 10.0; 
....................             result += (float)c / pow10;    
....................          } 
....................          else 
....................          { 
....................             result = 10.0 * result + (float)c; 
....................          } 
....................       } 
....................       else if (!skip) 
....................          break; 
....................    } 
....................  
....................    if (sign) 
....................       result = -1*result; 
....................        
....................    if(endptr) 
....................    { 
....................       if (ptr) { 
....................          ptr--; 
....................        #IF LONG_POINTERS  
....................          *((int16 *)endptr)= s+ptr;  
....................        #ELSE 
....................          *((char *)endptr)=s+ptr; 
....................        #ENDIF 
....................       } 
....................       else 
....................       { 
....................       #IF LONG_POINTERS 
....................       *((int16 *)endptr)= s;  
....................       #ELSE 
....................       *((char *)endptr)=s; 
....................       #ENDIF 
....................       } 
....................    } 
....................  
....................    return(result); 
.................... } 
....................  
.................... #if defined(__PCD__) 
.................... float48 strtof48(char *s, char *endptr) 
.................... { 
....................    float48 pow10 = 1.0; 
....................    float48 result = 0.0; 
....................    int1 skip = 1, sign = 0, point = 0; 
....................    char c; 
....................    unsigned int8 ptr = 0; 
....................  
....................    if (!s) 
....................       return 0; 
....................  
....................    for(c=s[ptr++]; c!=0; c=s[ptr++]) 
....................    { 
....................       if (skip && !isspace(c)) 
....................       { 
....................          skip = 0; 
....................          if (c == '+') 
....................          { 
....................             sign = 0; 
....................             continue; 
....................          }             
....................          else if (c == '-') 
....................          { 
....................             sign = 1; 
....................             continue; 
....................          } 
....................       } 
....................       if (!skip && (c == '.') && !point) 
....................          point = 1; 
....................       else if (!skip && isdigit(c)) 
....................       { 
....................          c -= '0'; 
....................          if (point) 
....................          { 
....................             pow10 = pow10 * 10.0; 
....................             result += (float48)c / pow10;    
....................          } 
....................          else 
....................          { 
....................             result = 10.0 * result + (float48)c; 
....................          } 
....................       } 
....................       else if (!skip) 
....................          break; 
....................    } 
....................  
....................    if (sign) 
....................       result = -1*result; 
....................        
....................    if(endptr) 
....................    { 
....................       if (ptr) { 
....................          ptr--; 
....................        #IF LONG_POINTERS  
....................          *((int16 *)endptr)= s+ptr;  
....................        #ELSE 
....................          *((char *)endptr)=s+ptr; 
....................        #ENDIF 
....................       } 
....................       else 
....................       { 
....................       #IF LONG_POINTERS 
....................       *((int16 *)endptr)= s;  
....................       #ELSE 
....................       *((char *)endptr)=s; 
....................       #ENDIF 
....................       } 
....................    } 
....................  
....................    return(result); 
.................... } 
....................  
.................... float64 strtod(char *s, char *endptr) 
.................... { 
....................    float64 pow10 = 1.0; 
....................    float64 result = 0.0; 
....................    int1 skip = 1, sign = 0, point = 0; 
....................    char c; 
....................    unsigned int8 ptr = 0; 
....................  
....................    if (!s) 
....................       return 0; 
....................  
....................    for(c=s[ptr++]; c!=0; c=s[ptr++]) 
....................    { 
....................       if (skip && !isspace(c)) 
....................       { 
....................          skip = 0; 
....................          if (c == '+') 
....................          { 
....................             sign = 0; 
....................             continue; 
....................          }             
....................          else if (c == '-') 
....................          { 
....................             sign = 1; 
....................             continue; 
....................          } 
....................       } 
....................       if (!skip && (c == '.') && !point) 
....................          point = 1; 
....................       else if (!skip && isdigit(c)) 
....................       { 
....................          c -= '0'; 
....................          if (point) 
....................          { 
....................             pow10 = pow10 * 10.0; 
....................             result += (float64)c / pow10;    
....................          } 
....................          else 
....................          { 
....................             result = 10.0 * result + (float64)c; 
....................          } 
....................       } 
....................       else if (!skip) 
....................          break; 
....................    } 
....................  
....................    if (sign) 
....................       result = -1*result; 
....................        
....................    if(endptr) 
....................    { 
....................       if (ptr) { 
....................          ptr--; 
....................        #IF LONG_POINTERS  
....................          *((int16 *)endptr)= s+ptr;  
....................        #ELSE 
....................          *((char *)endptr)=s+ptr; 
....................        #ENDIF 
....................       } 
....................       else 
....................       { 
....................       #IF LONG_POINTERS 
....................       *((int16 *)endptr)= s;  
....................       #ELSE 
....................       *((char *)endptr)=s; 
....................       #ENDIF 
....................       } 
....................    } 
....................  
....................    return(result); 
.................... } 
.................... #endif 
....................  
.................... unsigned long strtoul(char *s, char *endptr, signed int base) 
.................... { 
....................    char *sc,*s1,*sd; 
....................    unsigned long x=0; 
....................    char sign; 
....................    char digits[]="0123456789abcdefghijklmnopqstuvwxyz"; 
....................    for(sc=s;isspace(*sc);++sc); 
....................    sign=*sc=='-'||*sc=='+'?*sc++:'+'; 
....................    if(sign=='-' || base <0 || base ==1|| base >36) // invalid base 
....................    goto StrtoulGO; 
....................  
....................    else if (base) 
....................    { 
....................       if(base==16 && *sc =='0'&&(sc[1]=='x' || sc[1]=='X')) 
....................          sc+=2; 
....................       if(base==8 && *sc =='0') 
....................          sc+=1; 
....................       if(base==2 && *sc =='0'&&sc[1]=='b') 
....................          sc+=2; 
....................  
....................    } 
....................    else if(*sc!='0') // base is 0, find base 
....................       base=10; 
....................    else if (sc[1]=='x' || sc[1]=='X') 
....................       base =16,sc+=2; 
....................    else if(sc[1]=='b') 
....................       base=2,sc+=2; 
....................    else 
....................       base=8; 
....................    for (s1=sc;*sc=='0';++sc);// skip leading zeroes 
....................    sd=memchr(digits,tolower(*sc),base); 
....................    for(; sd!=0; ) 
....................    { 
....................       x=x*base+(int16)(sd-digits); 
....................       ++sc; 
....................       sd=memchr(digits,tolower(*sc),base); 
....................    } 
....................    if(s1==sc) 
....................    { 
....................    StrtoulGO: 
....................       if (endptr) 
....................       { 
....................          #IF LONG_POINTERS 
....................          *((int16 *)endptr)= s;  
....................          #ELSE 
....................          *((char *)endptr)=s; 
....................          #ENDIF 
....................          } 
....................    return 0; 
....................    } 
....................    if (endptr) 
....................    { 
....................          #IF LONG_POINTERS 
....................          *((int16 *)endptr)= sc;  
....................          #ELSE 
....................          *((char *)endptr)=sc;  
....................          #ENDIF 
....................    } 
....................    return x; 
.................... } 
....................  
....................  
.................... signed long strtol(char *s,char *endptr, signed int base) 
.................... { 
....................    char *sc,*s1,*sd; 
....................    signed long x=0; 
....................    char sign; 
....................    char digits[]="0123456789abcdefghijklmnopqstuvwxyz"; 
....................    for(sc=s;isspace(*sc);++sc); 
....................    sign=*sc=='-'||*sc=='+'?*sc++:'+'; 
....................    if (base <0 || base ==1|| base >36) // invalid base 
....................    goto StrtolGO; 
....................    else if (base) 
....................    { 
....................       if(base==16 && *sc =='0'&&(sc[1]=='x' || sc[1]=='X')) 
....................          sc+=2; 
....................       if(base==8 && *sc =='0') 
....................          sc+=1; 
....................       if(base==2 && *sc =='0'&&sc[1]=='b') 
....................          sc+=2; 
....................  
....................    } 
....................    else if(*sc!='0') // base is 0, find base 
....................       base=10; 
....................    else if (sc[1]=='x' || sc[1]=='X') 
....................       base =16,sc+=2; 
....................    else if(sc[1]=='b') 
....................       base=2,sc+=2; 
....................    else 
....................       base=8; 
....................    for (s1=sc;*sc=='0';++sc);// skip leading zeroes 
....................  
....................    sd=memchr(digits,tolower(*sc),base); 
....................    for(;sd!=0;) 
....................    { 
....................       x=x*base+(int16)(sd-digits); 
....................       ++sc; 
....................       sd=memchr(digits,tolower(*sc),base); 
....................    } 
....................    if(s1==sc) 
....................    { 
....................    StrtolGO: 
....................       if (endptr) 
....................       { 
....................          #IF LONG_POINTERS 
....................          *((int16 *)endptr)= s;  
....................          #ELSE 
....................          *((char *)endptr)=s; 
....................          #ENDIF 
....................       } 
....................    return 0; 
....................    } 
....................    if(sign=='-') 
....................       x  =-x; 
....................    if (endptr) 
....................    { 
....................         #IF LONG_POINTERS 
....................          *((int16 *)endptr)= sc;  
....................         #ELSE 
....................         *((char *)endptr)=sc; 
....................         #ENDIF 
....................    } 
....................    return x; 
.................... } 
....................  
.................... signed int8 system(char *string) 
.................... { 
....................    return 0; 
.................... } 
....................  
.................... int8 mblen(char *s,size_t n) 
.................... { 
....................    return strlen(s); 
.................... } 
....................  
.................... int8 mbtowc(wchar_t *pwc,char *s,size_t n) 
.................... { 
....................    *pwc=*s; 
....................    return 1; 
.................... } 
....................  
.................... int8 wctomb(char *s,wchar_t wchar) 
.................... { 
....................    *s=wchar; 
....................    return 1; 
.................... } 
....................  
.................... size_t mbstowcs(wchar_t *pwcs,char *s,size_t n) 
.................... { 
....................    strncpy(pwcs,s,n); 
....................    return strlen(pwcs); 
.................... } 
....................  
.................... size_t wcstombs(char *s,wchar_t *pwcs,size_t n) 
.................... { 
....................    strncpy(s,pwcs,n); 
....................    return strlen(s); 
.................... } 
....................  
.................... //--------------------------------------------------------------------------- 
.................... // The random number implementation 
.................... //--------------------------------------------------------------------------- 
....................  
.................... unsigned int32 _Randseed; 
....................  
.................... unsigned int16 rand(void) 
.................... { 
....................    _Randseed = _Randseed * 1103515245 + 12345; 
....................    return ((unsigned int16)(_Randseed >> 16) % RAND_MAX); 
.................... } 
....................  
.................... void srand(unsigned int32 seed) 
.................... { 
....................    _Randseed = seed; 
.................... } 
....................  
.................... //--------------------------------------------------------------------------- 
.................... // Searching and sorting utilities implementation 
.................... //--------------------------------------------------------------------------- 
....................  
.................... #if !defined(__PCD__) 
.................... typedef signed int8 (*_Cmpfun)(char * p1,char * p2);  
.................... #else  
.................... typedef signed int16 (*_Cmpfun)(char * p1,char * p2);  
.................... #endif 
....................  
....................  
....................  
.................... void qsort(char * qdata, unsigned int qitems, unsigned int qsize, _Cmpfun cmp) { 
....................    unsigned int m,j,i,l; 
....................    int1 done; 
....................    unsigned int8 t[16]; 
....................  
....................    m = qitems/2; 
....................    while( m > 0 ) { 
....................      for(j=0; j<(qitems-m); ++j) { 
....................         i = j; 
....................         do 
....................         { 
....................            done=1; 
....................            l = i+m; 
....................            if( (*cmp)(qdata+i*qsize, qdata+l*qsize) > 0 ) { 
....................               memcpy(t, qdata+i*qsize, qsize); 
....................               memcpy(qdata+i*qsize, qdata+l*qsize, qsize); 
....................               memcpy(qdata+l*qsize, t, qsize); 
....................               if(m <= i) 
....................                 i -= m; 
....................                 done = 0; 
....................            } 
....................         } while(!done); 
....................      } 
....................      m = m/2; 
....................    } 
.................... } 
....................  
....................  
.................... char *bsearch(char *key, char *base, size_t num, size_t width,_Cmpfun cmp) 
.................... { 
....................    char *p, *q; 
....................    size_t n; 
....................    size_t pivot; 
....................    signed int val; 
....................  
....................    p = base; 
....................    n = num; 
....................  
....................    while (n > 0) 
....................    { 
....................       pivot = n >> 1; 
....................       q = p + width * pivot; 
....................  
....................       val = (*cmp)(key, q); 
....................  
....................       if (val < 0) 
....................          n = pivot; 
....................       else if (val == 0) 
....................          return ((char *)q); 
....................       else { 
....................          p = q + width; 
....................          n -= pivot + 1; 
....................       } 
....................    } 
....................  
....................    return NULL;      // There's no match 
.................... } 
....................  
....................  
.................... #endif 
....................  
.................... #FUSES HSM,NOPROTECT,PUT,NOLVP,BROWNOUT,NOMCLR,WDT32768  
.................... #FUSES NOPLLEN, NOFCMEN, NOIESO, NOXINST, NODEBUG, NOPROTECT 
.................... #use delay(clock=12000000, restart_wdt) 
*
011CE:  MOVLW  05
011D0:  MOVLB  8
011D2:  SUBWF  xE0,F
011D4:  BNC   11EA
011D6:  MOVLW  08
011D8:  MOVWF  FEA
011DA:  MOVLW  E0
011DC:  MOVWF  FE9
011DE:  MOVF   FEF,W
011E0:  BZ    11EA
011E2:  BRA    11E6
011E4:  CLRWDT
011E6:  DECFSZ FEF,F
011E8:  BRA    11E4
011EA:  MOVLB  0
011EC:  RETURN 0
....................  
.................... /*  
.................... Parameters are stored in EEPROM 
.................... */ 
.................... #define PARAM_CRC_ADDRESS  0x000 
.................... #define PARAM_ADDRESS      PARAM_CRC_ADDRESS+2 
....................  
.................... #define EE_FOR_HOST_ADDRESS 512 
....................  
....................  
.................... #define WEATHER_X_BAUD 57600 
....................  
....................  
.................... /* UART1 - async serial connection connection to Pi */ 
.................... #use rs232(UART1,stream=STREAM_PI,baud=57600,xmit=PIN_C6,rcv=PIN_C7,errors)	 
*
0072A:  BTFSS  F9E.4
0072C:  BRA    072A
0072E:  MOVWF  FAD
00730:  RETURN 0
*
00760:  BTFSS  F9E.5
00762:  BRA    0760
00764:  MOVFF  FAB,35
00768:  MOVFF  FAE,01
0076C:  BTFSS  35.1
0076E:  BRA    0774
00770:  BCF    FAB.4
00772:  BSF    FAB.4
00774:  RETURN 0
....................  
....................  
.................... #byte TXSTA=GETENV("SFR:txsta1") 
.................... #bit  TRMT=TXSTA.1 
....................  
.................... #byte TXSTA2=GETENV("SFR:txsta2") 
.................... #bit  TRMT2=TXSTA2.1 
....................  
.................... #byte PORTB=GETENV("SFR:portb") 
.................... #byte INTCON2=GETENV("SFR:intcon2") 
.................... #bit RBPU=INTCON2.7 
....................  
.................... /* UART2 - RS-485 network */ 
.................... #use rs232(UART2, stream=STREAM_RS485, baud=9600,errors)	 
*
00692:  BTFSS  FA4.5
00694:  BRA    0692
00696:  MOVFF  F71,35
0069A:  MOVFF  F74,01
0069E:  BTFSS  35.1
006A0:  BRA    06A6
006A2:  BCF    F71.4
006A4:  BSF    F71.4
006A6:  GOTO   06AC (RETURN)
*
011EE:  BTFSS  FA4.4
011F0:  BRA    11EE
011F2:  MOVWF  F73
011F4:  RETURN 0
....................  
....................  
....................  
....................  
.................... #use fast_io(A) 
.................... #use fast_io(B) 
.................... #use fast_io(C) 
.................... #use fast_io(D) 
.................... #use fast_io(E) 
....................  
.................... #define LED_GREEN                PIN_A3 
.................... #define BUTTON                   PIN_B3 
.................... #define BUTTON_BIT               3 
.................... #define PI_POWER_EN              PIN_C0 
.................... #define PIC_BOOTLOAD_REQUEST     PIN_B4 
.................... #define PIC_BOOTLOAD_REQUEST_BIT 4 
.................... #define WATCHDOG_FROM_PI         PIN_B5 
.................... #define WATCHDOG_FROM_PI_BIT     5 
.................... #define SYNC_OUT                 PIN_D4 
.................... #define SER_TO_NET               PIN_D6 
.................... #define SER_FROM_NET             PIN_D7 
.................... #define PI_POWER_FLAG            PIN_C1 
....................  
.................... #define ADC_CLK                  PIN_C3 
.................... #define ADC_DOUT                 PIN_C4 
.................... #define ADC_DIN                  PIN_C5 
.................... #define ADC_NCS                  PIN_D2 
....................  
.................... #define RS485_NRE                PIN_D0 
.................... #define RS485_DE                 PIN_D1 
.................... #define _PIC_TO_PI                PIN_D3 
.................... #define SER_TO_PI                PIN_C6 
.................... #define SER_FROM_PI              PIN_C7 
....................  
.................... typedef union { 
.................... 	int16 l[2]; 
....................     int8 b[4]; 
....................     int32 word; 
.................... } u_lblock; 
....................  
.................... #byte port_b=GETENV("SFR:portb") 
.................... #byte port_c=GETENV("SFR:portc") 
....................  
....................  
....................  
.................... #define RS485_MODE_OFF           0 
.................... #define RS485_MODE_MODBUS_BRIDGE 1 
.................... #define RS485_MODE_NMEA0183_RX   2 
....................  
.................... #define RS485_SPEED_1200  0 
.................... #define RS485_SPEED_2400  1 
.................... #define RS485_SPEED_4800  2 
.................... #define RS485_SPEED_9600  3 
.................... #define RS485_SPEED_19200 4 
.................... #define RS485_SPEED_38400 5 
.................... #define RS485_SPEED_57600 6 
....................  
.................... #define N_NMEA0183_SENTENCES 12 
....................  
.................... typedef struct { 
.................... 	int8 modbus_address; 
.................... 	int8 modbus_mode; 
....................  
.................... 	int8 rs485_port_mode; 
.................... 	int8 rs485_port_speed; 
....................  
.................... 	int8 serial_prefix; 
.................... 	int16 serial_number; 
....................  
.................... 	int16 adc_sample_ticks; 
....................  
.................... 	int8 allow_bootload_request; 
.................... 	int16 watchdog_seconds_max; 
.................... 	int16 pi_offtime_seconds; 
....................  
....................  
.................... 	/* power control switch settings */ 
.................... 	int8 power_startup; /* 0==start with PI off, 1==start with PI on */ 
.................... 	int16 power_off_below_adc; 
.................... 	int16 power_off_below_delay; 
.................... 	int16 power_on_above_adc; 
.................... 	int16 power_on_above_delay; 
.................... 	int16 power_override_timeout; 
....................  
.................... 	/* sentences we make available via modbus */ 
.................... 	int8 nmea0183_sentence[N_NMEA0183_SENTENCES][6]; 
.................... } struct_config; 
....................  
....................  
....................  
.................... typedef struct { 
.................... 	/* most recent valid */ 
.................... 	int16 pulse_period[3]; 
.................... 	int16 pulse_min_period[3]; 
.................... 	int16 pulse_max_period[3]; 
.................... 	int16 pulse_count[3]; 
.................... 	int32 pulse_sum[3]; 
....................  
.................... 	int16 adc_std_dev[8]; 
....................  
.................... 	/* circular buffer for ADC readings */ 
.................... 	int16 adc_buffer[8][16]; 
.................... 	int8  adc_buffer_index; 
....................  
.................... 	int16 modbus_our_packets; 
.................... 	int16 modbus_other_packets; 
.................... 	int16 modbus_last_error; 
....................  
.................... 	int16 sequence_number; 
.................... 	int16 uptime_minutes; 
.................... 	int16 interval_milliseconds; 
....................  
.................... 	int8 factory_unlocked; 
....................  
.................... 	int16 watchdog_seconds; 
....................  
.................... 	/* power control switch */ 
.................... 	int8 p_on; 
.................... 	int16 power_on_delay; 
.................... 	int16 power_off_delay; 
.................... 	int16 power_override_timeout; 
....................  
.................... 	/* serial byte counters. Roll over */ 
.................... 	int16 rda_bytes_received; 
.................... 	int16 rda2_bytes_received; 
.................... } struct_current; 
....................  
.................... typedef struct { 
.................... 	int16 pulse_period[4]; 
.................... 	int16 pulse_count[4]; 
.................... 	int8 pulse_ch_en; 
....................  
.................... 	int8 led_on_green; 
.................... 	int16 load_off_seconds; 
....................  
.................... 	int1 now_adc_sample; 
.................... 	int1 now_adc_reset_count; 
....................  
.................... 	int1 now_millisecond; 
....................  
.................... 	int8 port_b; 
.................... 	int8 port_c; 
....................  
.................... 	short now_parse_rda2; 
.................... 	int8 rda2_buff[256]; 
.................... 	int8 rda2_buff_pos; 
.................... 	int8 rda2_buff_gap; 
....................  
.................... 	/* transmit buffer for PIC to PI */ 
.................... 	int8 rda_tx_buff[256]; 
.................... 	int8 rda_tx_length; 
.................... 	int8 rda_tx_pos; 
.................... 	int1 now_rda_tx_ready; 
.................... 	int1 now_rda_tx_done; 
.................... } struct_time_keep; 
....................  
....................  
....................  
.................... #define NMEA_SENTENCE_LENGTH 80 
.................... typedef struct { 
.................... 	int8 sentence[N_NMEA0183_SENTENCES][NMEA_SENTENCE_LENGTH]; 
.................... } struct_nmea; 
....................  
....................  
....................  
.................... /* global structures */ 
.................... struct_config config; 
.................... struct_current current; 
.................... struct_time_keep timers; 
.................... struct_nmea nmea; 
....................  
.................... /* declarations */ 
.................... void set_rs485_speed(void); 
....................  
....................  
.................... #include "mcp3208_pcwx.c" 
.................... #define MCP3208_CLK  ADC_CLK 
.................... #define MCP3208_DOUT ADC_DOUT 
.................... #define MCP3208_DIN  ADC_DIN 
....................  
.................... #inline 
.................... void mcp3208_init(void) { 
.................... 	output_high(ADC_NCS); 
*
00F38:  BSF    F8C.2
.................... } 
....................  
.................... int16 mcp3208_read(int8 ch) { 
.................... 	int16 value; 
.................... 	int8 i; 
.................... 	int8 c; 
....................  
....................  
....................  
.................... 	output_low(MCP3208_CLK); 
*
00E98:  BCF    F8B.3
.................... 	output_high(MCP3208_DIN); 
00E9A:  BSF    F8B.5
....................  
.................... 	output_low(ADC_NCS); 
00E9C:  BCF    F8C.2
....................  
.................... 	/* d0, d1, d2, single / !differential, start */	 
.................... 	if ( 0 == ch )  
00E9E:  MOVLB  8
00EA0:  MOVF   xDC,F
00EA2:  BNZ   0EAA
.................... 		c=0b00011; 
00EA4:  MOVLW  03
00EA6:  MOVWF  xE0
.................... 	else if ( 1 == ch )  
00EA8:  BRA    0EF4
00EAA:  DECFSZ xDC,W
00EAC:  BRA    0EB4
.................... 		c=0b10011; 
00EAE:  MOVLW  13
00EB0:  MOVWF  xE0
.................... 	else if ( 2 == ch )  
00EB2:  BRA    0EF4
00EB4:  MOVF   xDC,W
00EB6:  SUBLW  02
00EB8:  BNZ   0EC0
.................... 		c=0b01011; 
00EBA:  MOVLW  0B
00EBC:  MOVWF  xE0
.................... 	else if ( 3 == ch )  
00EBE:  BRA    0EF4
00EC0:  MOVF   xDC,W
00EC2:  SUBLW  03
00EC4:  BNZ   0ECC
.................... 		c=0b11011; 
00EC6:  MOVLW  1B
00EC8:  MOVWF  xE0
.................... 	else if ( 4 == ch ) 
00ECA:  BRA    0EF4
00ECC:  MOVF   xDC,W
00ECE:  SUBLW  04
00ED0:  BNZ   0ED8
.................... 		c=0b00111; 
00ED2:  MOVLW  07
00ED4:  MOVWF  xE0
.................... 	else if ( 5 == ch )  
00ED6:  BRA    0EF4
00ED8:  MOVF   xDC,W
00EDA:  SUBLW  05
00EDC:  BNZ   0EE4
.................... 		c=0b10111; 
00EDE:  MOVLW  17
00EE0:  MOVWF  xE0
.................... 	else if ( 6 == ch ) 
00EE2:  BRA    0EF4
00EE4:  MOVF   xDC,W
00EE6:  SUBLW  06
00EE8:  BNZ   0EF0
.................... 		c=0b01111; 
00EEA:  MOVLW  0F
00EEC:  MOVWF  xE0
.................... 	else 
00EEE:  BRA    0EF4
.................... 		c=0b11111; 
00EF0:  MOVLW  1F
00EF2:  MOVWF  xE0
....................  
.................... 	/* select out channel and start the conversion */ 
.................... 	for ( i=0 ; i<5 ; i++ ) { 
00EF4:  CLRF   xDF
00EF6:  MOVF   xDF,W
00EF8:  SUBLW  04
00EFA:  BNC   0F12
.................... 		output_low(MCP3208_CLK); 
00EFC:  BCF    F8B.3
.................... 		output_bit(MCP3208_DIN,c&1); 
00EFE:  BTFSC  xE0.0
00F00:  BRA    0F06
00F02:  BCF    F8B.5
00F04:  BRA    0F08
00F06:  BSF    F8B.5
.................... 		c=c>>1; 
00F08:  BCF    FD8.0
00F0A:  RRCF   xE0,F
.................... 		output_high(MCP3208_CLK); 
00F0C:  BSF    F8B.3
.................... 	} 
00F0E:  INCF   xDF,F
00F10:  BRA    0EF6
....................  
....................  
.................... 	value=0; 
00F12:  CLRF   xDE
00F14:  CLRF   xDD
.................... 	for ( i=0 ; i<14 ; i++ ) { 
00F16:  CLRF   xDF
00F18:  MOVF   xDF,W
00F1A:  SUBLW  0D
00F1C:  BNC   0F34
.................... 		output_low(MCP3208_CLK); 
00F1E:  BCF    F8B.3
.................... 		shift_left(&value,2,input(MCP3208_DOUT)); 
00F20:  BTFSC  F82.4
00F22:  BRA    0F28
00F24:  BCF    FD8.0
00F26:  BRA    0F2A
00F28:  BSF    FD8.0
00F2A:  RLCF   xDD,F
00F2C:  RLCF   xDE,F
.................... 		output_high(MCP3208_CLK); 
00F2E:  BSF    F8B.3
.................... 	} 
00F30:  INCF   xDF,F
00F32:  BRA    0F18
....................  
.................... 	bit_clear(value,13); 
00F34:  BCF    xDE.5
.................... 	bit_clear(value,12); 
00F36:  BCF    xDE.4
....................  
.................... 	/* de-select ADCs */ 
.................... 	mcp3208_init(); 
....................  
.................... 	return value; 
*
00F3A:  MOVFF  8DD,01
00F3E:  MOVFF  8DE,02
.................... } 
00F42:  MOVLB  0
00F44:  GOTO   0FB6 (RETURN)
....................  
.................... #include "adc_pcwx.c" 
.................... // const int8 adcChannelMap[8]={AN_IN_VOLTS, AN_TEMPERATURE, AN_WIND_DIR_0, AN_WIND_DIR_1, AN_USER_USER_0, AN_USER_USER_1, AN_USER_USER_2, AN_USER_USER_3}; 
....................  
.................... int16 adc_get(int8 ch) { 
.................... 	int16 sum; 
.................... 	int8 i; 
....................  
.................... 	/* pre-compute address of channel adc buffer. Saves computing it 16 times in the loop below */ 
.................... 	int16 *p; 
.................... 	p = current.adc_buffer[ch]; 
*
013D8:  MOVLB  9
013DA:  CLRF   xDE
013DC:  MOVFF  8F1,9DD
013E0:  CLRF   xE0
013E2:  MOVLW  20
013E4:  MOVWF  xDF
013E6:  MOVLB  0
013E8:  CALL   08D4
013EC:  MOVFF  02,03
013F0:  MOVF   01,W
013F2:  ADDLW  CB
013F4:  MOVWF  01
013F6:  MOVLW  00
013F8:  ADDWFC 03,F
013FA:  MOVFF  01,8F5
013FE:  MOVLB  8
01400:  MOVFF  03,8F6
....................  
.................... 	// Calculate the mean.  This is done by summing up the 
.................... 	// values and dividing by the number of elements. 
.................... 	sum = 0; 
01404:  CLRF   xF3
01406:  CLRF   xF2
.................... 	for( i = 0; i < 16 ; i++ ) { 
01408:  CLRF   xF4
0140A:  MOVF   xF4,W
0140C:  SUBLW  0F
0140E:  BNC   1432
.................... //		sum += current.adc_buffer[ch][i]; 
.................... 		sum += p[i]; 
01410:  BCF    FD8.0
01412:  RLCF   xF4,W
01414:  CLRF   03
01416:  ADDWF  xF5,W
01418:  MOVWF  FE9
0141A:  MOVF   xF6,W
0141C:  ADDWFC 03,W
0141E:  MOVWF  FEA
01420:  MOVFF  FEC,03
01424:  MOVF   FED,F
01426:  MOVF   FEF,W
01428:  ADDWF  xF2,F
0142A:  MOVF   03,W
0142C:  ADDWFC xF3,F
.................... 	} 
0142E:  INCF   xF4,F
01430:  BRA    140A
....................  
.................... 	/* divide sum by our 16 samples and round by adding 8 */ 
.................... 	return ( (sum+8) >> 4 ); 
01432:  MOVLW  08
01434:  ADDWF  xF2,W
01436:  MOVWF  xF7
01438:  MOVLW  00
0143A:  ADDWFC xF3,W
0143C:  MOVWF  xF8
0143E:  RRCF   xF8,W
01440:  MOVWF  03
01442:  RRCF   xF7,W
01444:  MOVWF  02
01446:  RRCF   03,F
01448:  RRCF   02,F
0144A:  RRCF   03,F
0144C:  RRCF   02,F
0144E:  RRCF   03,F
01450:  RRCF   02,F
01452:  MOVLW  0F
01454:  ANDWF  03,F
01456:  MOVFF  02,01
0145A:  MOVFF  03,02
.................... } 
0145E:  MOVLB  0
01460:  RETURN 0
....................  
....................  
.................... void adc_update(void) { 
.................... 	int8 i; 
....................  
.................... 	/* wrap buffer around */ 
.................... 	current.adc_buffer_index++; 
*
00F48:  MOVLB  1
00F4A:  INCF   xCB,F
.................... 	if ( current.adc_buffer_index >= 16 ) 
00F4C:  MOVF   xCB,W
00F4E:  SUBLW  0F
00F50:  BC    0F54
.................... 		current.adc_buffer_index=0; 
00F52:  CLRF   xCB
....................  
....................  
.................... 	for ( i=0 ; i<8 ; i++ ) { 
00F54:  MOVLB  8
00F56:  CLRF   xD9
00F58:  MOVF   xD9,W
00F5A:  SUBLW  07
00F5C:  BNC   0FEC
.................... 		current.adc_buffer[i][current.adc_buffer_index] = mcp3208_read(i); 
00F5E:  MOVLB  9
00F60:  CLRF   xDE
00F62:  MOVFF  8D9,9DD
00F66:  CLRF   xE0
00F68:  MOVLW  20
00F6A:  MOVWF  xDF
00F6C:  MOVLB  0
00F6E:  RCALL  08D4
00F70:  MOVFF  02,03
00F74:  MOVF   01,W
00F76:  ADDLW  34
00F78:  MOVLB  8
00F7A:  MOVWF  xDA
00F7C:  MOVLW  00
00F7E:  ADDWFC 02,W
00F80:  MOVWF  xDB
00F82:  CLRF   03
00F84:  MOVLB  1
00F86:  MOVFF  1CB,02
00F8A:  BCF    FD8.0
00F8C:  RLCF   02,F
00F8E:  RLCF   03,F
00F90:  MOVF   02,W
00F92:  MOVLB  8
00F94:  ADDWF  xDA,W
00F96:  MOVWF  01
00F98:  MOVF   xDB,W
00F9A:  ADDWFC 03,F
00F9C:  MOVF   01,W
00F9E:  ADDLW  97
00FA0:  MOVWF  01
00FA2:  MOVLW  00
00FA4:  ADDWFC 03,F
00FA6:  MOVFF  01,8DA
00FAA:  MOVFF  03,8DB
00FAE:  MOVFF  8D9,8DC
00FB2:  MOVLB  0
00FB4:  BRA    0E98
00FB6:  MOVFF  8DB,FEA
00FBA:  MOVFF  8DA,FE9
00FBE:  MOVFF  02,FEC
00FC2:  MOVF   FED,F
00FC4:  MOVFF  01,FEF
.................... 		current.adc_std_dev[i]=0; 
00FC8:  CLRF   03
00FCA:  MOVLB  8
00FCC:  MOVFF  8D9,02
00FD0:  BCF    FD8.0
00FD2:  RLCF   02,F
00FD4:  RLCF   03,F
00FD6:  MOVF   02,W
00FD8:  ADDLW  BB
00FDA:  MOVWF  FE9
00FDC:  MOVLW  00
00FDE:  ADDWFC 03,W
00FE0:  MOVWF  FEA
00FE2:  CLRF   FEC
00FE4:  MOVF   FED,F
00FE6:  CLRF   FEF
....................  
.................... 	} 
00FE8:  INCF   xD9,F
00FEA:  BRA    0F58
.................... } 
00FEC:  MOVLB  0
00FEE:  RETURN 0
....................  
.................... #include "param_pcwx.c" 
.................... #inline 
.................... char xor_crc(char oldcrc, char data) { 
.................... 	return oldcrc ^ data; 
*
00C6A:  MOVF   xF6,W
00C6C:  XORWF  xF7,W
00C6E:  MOVWF  01
*
00CBC:  MOVF   xF6,W
00CBE:  XORWF  xF7,W
00CC0:  MOVWF  01
.................... } 
....................  
.................... char EEPROMDataRead( int16 address, int8 *data, int16 count ) { 
*
00BF4:  MOVLB  8
00BF6:  CLRF   xE2
.................... 	char crc=0; 
....................  
.................... 	while ( count-- != 0 ) { 
00BF8:  MOVFF  8E1,03
00BFC:  MOVF   xE0,W
00BFE:  BTFSC  FD8.2
00C00:  DECF   xE1,F
00C02:  DECF   xE0,F
00C04:  MOVWF  xE3
00C06:  MOVFF  03,8E4
00C0A:  MOVF   xE3,F
00C0C:  BNZ   0C12
00C0E:  MOVF   xE4,F
00C10:  BZ    0C7C
.................... 		*data = read_eeprom( address++ ); 
00C12:  MOVFF  8DF,03
00C16:  MOVF   xDE,W
00C18:  MOVWF  FE9
00C1A:  MOVFF  03,FEA
00C1E:  MOVF   xDD,W
00C20:  MOVWF  03
00C22:  MOVF   xDC,W
00C24:  INCF   xDC,F
00C26:  BTFSC  FD8.2
00C28:  INCF   xDD,F
00C2A:  MOVWF  xE5
00C2C:  MOVFF  03,8E6
00C30:  MOVFF  FF2,8E7
00C34:  BCF    FF2.6
00C36:  BCF    FF2.7
00C38:  MOVFF  8E6,FAA
00C3C:  MOVFF  8E5,FA9
00C40:  BCF    FA6.6
00C42:  BCF    FA6.7
00C44:  BSF    FA6.0
00C46:  MOVF   FA8,W
00C48:  BTFSC  xE7.6
00C4A:  BSF    FF2.6
00C4C:  BTFSC  xE7.7
00C4E:  BSF    FF2.7
00C50:  MOVWF  FEF
.................... 		crc = xor_crc(crc,*data); 
00C52:  MOVFF  8DF,03
00C56:  MOVF   xDE,W
00C58:  MOVWF  FE9
00C5A:  MOVFF  03,FEA
00C5E:  MOVFF  FEF,8E3
00C62:  MOVFF  8E2,8F6
00C66:  MOVFF  8E3,8F7
*
00C70:  MOVFF  01,8E2
.................... 		data++; 
00C74:  INCF   xDE,F
00C76:  BTFSC  FD8.2
00C78:  INCF   xDF,F
.................... 	} 
00C7A:  BRA    0BF8
.................... 	return crc; 
00C7C:  MOVFF  8E2,01
.................... } 
00C80:  MOVLB  0
00C82:  GOTO   0E4C (RETURN)
....................  
.................... char EEPROMDataWrite( int16 address, int8 *data, int16 count ) { 
00C86:  MOVLB  8
00C88:  CLRF   xF4
.................... 	char crc=0; 
....................  
.................... 	while ( count-- != 0 ) { 
00C8A:  MOVFF  8F3,03
00C8E:  MOVF   xF2,W
00C90:  BTFSC  FD8.2
00C92:  DECF   xF3,F
00C94:  DECF   xF2,F
00C96:  MOVWF  xF5
00C98:  MOVFF  03,8F6
00C9C:  MOVF   xF5,F
00C9E:  BNZ   0CA4
00CA0:  MOVF   xF6,F
00CA2:  BZ    0D22
.................... 		/* restart_wdt() */ 
.................... 		crc = xor_crc(crc,*data); 
00CA4:  MOVFF  8F1,03
00CA8:  MOVF   xF0,W
00CAA:  MOVWF  FE9
00CAC:  MOVFF  03,FEA
00CB0:  MOVFF  FEF,8F5
00CB4:  MOVFF  8F4,8F6
00CB8:  MOVFF  8F5,8F7
*
00CC2:  MOVFF  01,8F4
.................... 		write_eeprom( address++, *data++ ); 
00CC6:  MOVF   xEF,W
00CC8:  MOVWF  03
00CCA:  MOVF   xEE,W
00CCC:  INCF   xEE,F
00CCE:  BTFSC  FD8.2
00CD0:  INCF   xEF,F
00CD2:  MOVWF  xF5
00CD4:  MOVFF  03,8F6
00CD8:  MOVF   xF1,W
00CDA:  MOVWF  03
00CDC:  MOVF   xF0,W
00CDE:  INCF   xF0,F
00CE0:  BTFSC  FD8.2
00CE2:  INCF   xF1,F
00CE4:  MOVWF  FE9
00CE6:  MOVFF  03,FEA
00CEA:  MOVFF  FEF,8F7
00CEE:  MOVFF  8F6,FAA
00CF2:  MOVFF  8F5,FA9
00CF6:  MOVFF  8F7,FA8
00CFA:  BCF    FA6.6
00CFC:  BCF    FA6.7
00CFE:  BSF    FA6.2
00D00:  MOVF   FF2,W
00D02:  MOVWF  00
00D04:  BCF    FF2.6
00D06:  BCF    FF2.7
00D08:  MOVLB  F
00D0A:  MOVLW  55
00D0C:  MOVWF  FA7
00D0E:  MOVLW  AA
00D10:  MOVWF  FA7
00D12:  BSF    FA6.1
00D14:  BTFSC  FA6.1
00D16:  BRA    0D14
00D18:  BCF    FA6.2
00D1A:  MOVF   00,W
00D1C:  IORWF  FF2,F
.................... 	} 
00D1E:  MOVLB  8
00D20:  BRA    0C8A
....................  
.................... 	return crc; 
00D22:  MOVFF  8F4,01
.................... } 
00D26:  MOVLB  0
00D28:  GOTO   0D4C (RETURN)
....................  
.................... void write_param_file() { 
.................... 	int8 crc; 
....................  
.................... 	/* write the config structure */ 
.................... 	crc = EEPROMDataWrite(PARAM_ADDRESS,(void *)&config,sizeof(config)); 
00D2C:  MOVLB  8
00D2E:  CLRF   xED
00D30:  MOVLW  36
00D32:  MOVWF  xEC
00D34:  CLRF   xEF
00D36:  MOVLW  02
00D38:  MOVWF  xEE
00D3A:  MOVFF  8ED,8F1
00D3E:  MOVFF  8EC,8F0
00D42:  CLRF   xF3
00D44:  MOVLW  61
00D46:  MOVWF  xF2
00D48:  MOVLB  0
00D4A:  BRA    0C86
00D4C:  MOVFF  01,8EB
.................... 	/* write the CRC was calculated on the structure */ 
.................... 	write_eeprom(PARAM_CRC_ADDRESS,crc); 
00D50:  CLRF   FAA
00D52:  CLRF   FA9
00D54:  MOVFF  8EB,FA8
00D58:  BCF    FA6.6
00D5A:  BCF    FA6.7
00D5C:  BSF    FA6.2
00D5E:  MOVF   FF2,W
00D60:  MOVWF  00
00D62:  BCF    FF2.6
00D64:  BCF    FF2.7
00D66:  MOVLB  F
00D68:  MOVLW  55
00D6A:  MOVWF  FA7
00D6C:  MOVLW  AA
00D6E:  MOVWF  FA7
00D70:  BSF    FA6.1
00D72:  BTFSC  FA6.1
00D74:  BRA    0D72
00D76:  BCF    FA6.2
00D78:  MOVF   00,W
00D7A:  IORWF  FF2,F
.................... } 
00D7C:  MOVLB  0
00D7E:  RETURN 0
....................  
.................... void write_default_param_file() { 
.................... 	/* red LED for 1.5 seconds */ 
.................... 	timers.led_on_green=150; 
00D80:  MOVLW  96
00D82:  MOVLB  1
00D84:  MOVWF  xF7
....................  
.................... 	config.modbus_address=38; 
00D86:  MOVLW  26
00D88:  MOVWF  36
.................... 	config.rs485_port_speed=RS485_SPEED_9600; 
00D8A:  MOVLW  03
00D8C:  MOVWF  39
.................... 	config.rs485_port_mode=RS485_MODE_NMEA0183_RX; // RS485_MODE_MODBUS_BRIDGE; 
00D8E:  MOVLW  02
00D90:  MOVWF  38
.................... //	config.modbus_address=128; /* use any address */ 
....................  
.................... 	config.serial_prefix='P'; 
00D92:  MOVLW  50
00D94:  MOVWF  3A
.................... 	config.serial_number=9876; 
00D96:  MOVLW  26
00D98:  MOVWF  3C
00D9A:  MOVLW  94
00D9C:  MOVWF  3B
....................  
.................... 	config.adc_sample_ticks=20; 
00D9E:  CLRF   3E
00DA0:  MOVLW  14
00DA2:  MOVWF  3D
.................... 	config.allow_bootload_request=0; 
00DA4:  CLRF   3F
....................  
.................... 	config.watchdog_seconds_max=630; /* 10 minutes & 30 seconds */ 
00DA6:  MOVLW  02
00DA8:  MOVWF  41
00DAA:  MOVLW  76
00DAC:  MOVWF  40
.................... 	config.pi_offtime_seconds=2; 
00DAE:  CLRF   43
00DB0:  MOVLW  02
00DB2:  MOVWF  42
.................... 	config.power_startup=0; 
00DB4:  CLRF   44
....................  
.................... 	/* clear NMEA0183 sentence character array */ 
.................... 	memset(config.nmea0183_sentence,0,sizeof(config.nmea0183_sentence)); 
00DB6:  CLRF   FEA
00DB8:  MOVLW  4F
00DBA:  MOVWF  FE9
00DBC:  CLRF   00
00DBE:  CLRF   02
00DC0:  MOVLW  48
00DC2:  MOVWF  01
00DC4:  MOVLB  0
00DC6:  RCALL  08F6
.................... 	/* set defaults. Can set the first 11 this way. They are 6 bytes long, not null terminated. 
.................... 	Can use normal string functions (null terminated) to set the first 11 of them in order. 
.................... 	12th would go 1 byte past the end of array */ 
.................... 	strcpy(config.nmea0183_sentence[0],"$GPRMC"); 
00DC8:  CLRF   FEA
00DCA:  MOVLW  4F
00DCC:  MOVWF  FE9
00DCE:  MOVLW  00
00DD0:  CALL   0188
00DD4:  TBLRD*-
00DD6:  TBLRD*+
00DD8:  MOVF   FF5,W
00DDA:  MOVWF  FEE
00DDC:  IORLW  00
00DDE:  BNZ   0DD6
.................... 	strcpy(config.nmea0183_sentence[1],"$GPGGA"); 
00DE0:  CLRF   FEA
00DE2:  MOVLW  55
00DE4:  MOVWF  FE9
00DE6:  MOVLW  00
00DE8:  CALL   01A0
00DEC:  TBLRD*-
00DEE:  TBLRD*+
00DF0:  MOVF   FF5,W
00DF2:  MOVWF  FEE
00DF4:  IORLW  00
00DF6:  BNZ   0DEE
.................... 	strcpy(config.nmea0183_sentence[2],"$GPGSV"); 
00DF8:  CLRF   FEA
00DFA:  MOVLW  5B
00DFC:  MOVWF  FE9
00DFE:  MOVLW  00
00E00:  CALL   01B8
00E04:  TBLRD*-
00E06:  TBLRD*+
00E08:  MOVF   FF5,W
00E0A:  MOVWF  FEE
00E0C:  IORLW  00
00E0E:  BNZ   0E06
....................  
.................... 	strcpy(config.nmea0183_sentence[10],"$WIMDA"); 
00E10:  CLRF   FEA
00E12:  MOVLW  8B
00E14:  MOVWF  FE9
00E16:  MOVLW  00
00E18:  CALL   01D0
00E1C:  TBLRD*-
00E1E:  TBLRD*+
00E20:  MOVF   FF5,W
00E22:  MOVWF  FEE
00E24:  IORLW  00
00E26:  BNZ   0E1E
....................  
.................... 	/* write them so next time we use from EEPROM */ 
.................... 	write_param_file(); 
00E28:  RCALL  0D2C
....................  
.................... } 
00E2A:  RETURN 0
....................  
....................  
.................... void read_param_file() { 
.................... 	int8 crc; 
....................  
.................... 	crc = EEPROMDataRead(PARAM_ADDRESS, (void *)&config, sizeof(config));  
00E2C:  MOVLB  8
00E2E:  CLRF   xDB
00E30:  MOVLW  36
00E32:  MOVWF  xDA
00E34:  CLRF   xDD
00E36:  MOVLW  02
00E38:  MOVWF  xDC
00E3A:  MOVFF  8DB,8DF
00E3E:  MOVFF  8DA,8DE
00E42:  CLRF   xE1
00E44:  MOVLW  61
00E46:  MOVWF  xE0
00E48:  MOVLB  0
00E4A:  BRA    0BF4
00E4C:  MOVFF  01,8D9
.................... 		 
.................... 	if ( crc != read_eeprom(PARAM_CRC_ADDRESS) ) { 
00E50:  MOVFF  FF2,8DA
00E54:  BCF    FF2.6
00E56:  BCF    FF2.7
00E58:  CLRF   FAA
00E5A:  CLRF   FA9
00E5C:  BCF    FA6.6
00E5E:  BCF    FA6.7
00E60:  BSF    FA6.0
00E62:  MOVF   FA8,W
00E64:  MOVLB  8
00E66:  BTFSC  xDA.6
00E68:  BSF    FF2.6
00E6A:  BTFSC  xDA.7
00E6C:  BSF    FF2.7
00E6E:  SUBWF  xD9,W
00E70:  BZ    0E78
.................... 		write_default_param_file(); 
00E72:  MOVLB  0
00E74:  RCALL  0D80
00E76:  MOVLB  8
.................... 	} 
.................... } 
00E78:  MOVLB  0
00E7A:  GOTO   2CEA (RETURN)
....................  
....................  
....................  
....................  
.................... #include "modbus_slave_pcwx.c" 
....................  
....................  
.................... ////////////////////////////////////////////////////////////////////////////////////////// 
.................... ////                                      modbus.c                                    //// 
.................... ////                                                                                  //// 
.................... ////                 MODBUS protocol driver for serial communications.                //// 
.................... ////                                                                                  //// 
.................... ////  Refer to documentation at http://www.modbus.org for more information on MODBUS. //// 
.................... ////                                                                                  //// 
.................... ////////////////////////////////////////////////////////////////////////////////////////// 
.................... ////                                                                                  //// 
.................... //// DEFINES:                                                                         //// 
.................... ////                                                                                  //// 
.................... ////  MODBUS_TYPE                   MODBUS_TYPE_MASTER or MODBUS_TYPE_SLAVE           //// 
.................... ////  MODBUS_SERIAL_INT_SOURCE      Source of interrupts                              //// 
.................... ////                                (MODBUS_INT_EXT,MODBUS_INT_RDA,MODBUS_INT_RDA2)   //// 
.................... ////  MODBUS_SERIAL_BAUD            Valid baud rate for serial                        //// 
.................... ////  MODBUS_SERIAL_RX_PIN          Valid pin for serial receive                      //// 
.................... ////  MODBUS_SERIAL_TX_PIN          Valid pin for serial transmit                     //// 
.................... ////  MODBUS_SERIAL_ENABLE_PIN      Valid pin for serial enable, rs485 only           //// 
.................... ////  MODBUS_SERIAL_RX_ENABLE       Valid pin for serial rcv enable, rs485 only       //// 
.................... ////  MODBUS_SERAIL_RX_BUFFER_SIZE  Size of the receive buffer                        //// 
.................... ////                                                                                  //// 
.................... ////                                                                                  //// 
.................... //// SHARED API:                                                                      //// 
.................... ////                                                                                  //// 
.................... ////  modbus_init()                                                                   //// 
.................... ////    - Initialize modbus serial communication system                               //// 
.................... ////                                                                                  //// 
.................... ////  modbus_serial_send_start(address,func)                                          //// 
.................... ////    - Setup serial line to begin sending.  Once this is called, you can send data //// 
.................... ////      using modbus_serial_putc().  Should only be used for custom commands.       //// 
.................... ////                                                                                  //// 
.................... ////  modbus_serial_send_stop()                                                       //// 
.................... ////    - Must be called to finalize the send when modbus_serial_send_start is used.  //// 
.................... ////                                                                                  //// 
.................... ////  modbus_kbhit()                                                                  //// 
.................... ////    - Used to check if a packet has been received.                                //// 
.................... ////                                                                                  //// 
.................... //// MASTER API:                                                                      //// 
.................... ////  All master API functions return 0 on success.                                   //// 
.................... ////                                                                                  //// 
.................... ////  exception modbus_read_coils(address,start_address,quantity)                     //// 
.................... ////    - Wrapper for function 0x01(read coils) in the MODBUS specification.          //// 
.................... ////                                                                                  //// 
.................... ////  exception modbus_read_discrete_input(address,start_address,quantity)            //// 
.................... ////    - Wrapper for function 0x02(read discret input) in the MODBUS specification.  //// 
.................... ////                                                                                  //// 
.................... ////  exception modbus_read_holding_registers(address,start_address,quantity)         //// 
.................... ////    - Wrapper for function 0x03(read holding regs) in the MODBUS specification.   //// 
.................... ////                                                                                  //// 
.................... ////  exception modbus_read_input_registers(address,start_address,quantity)           //// 
.................... ////    - Wrapper for function 0x04(read input regs) in the MODBUS specification.     //// 
.................... ////                                                                                  //// 
.................... ////  exception modbus_write_single_coil(address,output_address,on)                   //// 
.................... ////    - Wrapper for function 0x05(write single coil) in the MODBUS specification.   //// 
.................... ////                                                                                  //// 
.................... ////  exception modbus_write_single_register(address,reg_address,reg_value)           //// 
.................... ////    - Wrapper for function 0x06(write single reg) in the MODBUS specification.    //// 
.................... ////                                                                                  //// 
.................... ////  exception modbus_read_exception_status(address)                                 //// 
.................... ////    - Wrapper for function 0x07(read void status) in the MODBUS specification.    //// 
.................... ////                                                                                  //// 
.................... ////  exception modbus_diagnostics(address,sub_func,data)                             //// 
.................... ////    - Wrapper for function 0x08(diagnostics) in the MODBUS specification.         //// 
.................... ////                                                                                  //// 
.................... ////  exception modbus_get_comm_event_counter(address)                                //// 
.................... ////    - Wrapper for function 0x0B(get comm event count) in the MODBUS specification.//// 
.................... ////                                                                                  //// 
.................... ////  exception modbus_get_comm_event_log(address)                                    //// 
.................... ////    - Wrapper for function 0x0C(get comm event log) in the MODBUS specification.  //// 
.................... ////                                                                                  //// 
.................... ////  exception modbus_write_multiple_coils(address,start_address,quantity,*values)   //// 
.................... ////    - Wrapper for function 0x0F(write multiple coils) in the MODBUS specification.//// 
.................... ////    - Special Note: values is a pointer to an int8 array, each byte represents 8  //// 
.................... ////                    coils.                                                        //// 
.................... ////                                                                                  //// 
.................... ////  exception modbus_write_multiple_registers(address,start_address,quantity,*values)/// 
.................... ////    - Wrapper for function 0x10(write multiple regs) in the MODBUS specification. //// 
.................... ////    - Special Note: values is a pointer to an int8 array                          //// 
.................... ////                                                                                  //// 
.................... ////  exception modbus_report_slave_id(address)                                       //// 
.................... ////    - Wrapper for function 0x11(report slave id) in the MODBUS specification.     //// 
.................... ////                                                                                  //// 
.................... ////  exception modbus_read_file_record(address,byte_count,*request)                  //// 
.................... ////    - Wrapper for function 0x14(read file record) in the MODBUS specification.    //// 
.................... ////                                                                                  //// 
.................... ////  exception modbus_write_file_record(address,byte_count,*request)                 //// 
.................... ////    - Wrapper for function 0x15(write file record) in the MODBUS specification.   //// 
.................... ////                                                                                  //// 
.................... ////  exception modbus_mask_write_register(address,reference_address,AND_mask,OR_mask)//// 
.................... ////    - Wrapper for function 0x16(read coils) in the MODBUS specification.          //// 
.................... ////                                                                                  //// 
.................... ////  exception modbus_read_write_multiple_registers(address,read_start,read_quantity,//// 
.................... ////                            write_start,write_quantity, *write_registers_value)   //// 
.................... ////    - Wrapper for function 0x17(read write mult regs) in the MODBUS specification.//// 
.................... ////                                                                                  //// 
.................... ////  exception modbus_read_FIFO_queue(address,FIFO_address)                          //// 
.................... ////    - Wrapper for function 0x18(read FIFO queue) in the MODBUS specification.     //// 
.................... ////                                                                                  //// 
.................... ////////////////////////////////////////////////////////////////////////////////////////// 
.................... ////                (C) Copyright 1996, 2006 Custom Computer Services                 //// 
.................... ////        This source code may only be used by licensed users of the CCS            //// 
.................... ////        C compiler.  This source code may only be distributed to other            //// 
.................... ////        licensed users of the CCS C compiler.  No other use,                      //// 
.................... ////        reproduction or distribution is permitted without written                 //// 
.................... ////        permission.  Derivative programs created using this software              //// 
.................... ////        in object code form are not restricted in any way.                        //// 
.................... ////////////////////////////////////////////////////////////////////////////////////////// 
....................  
....................  
....................  
.................... #define RCV_OFF() {disable_interrupts(INT_RDA);} 
....................  
....................  
.................... #define MODBUS_SERIAL_RX_BUFFER_SIZE  255      //size of send/rcv buffer 
....................  
.................... void wait_for_hw_buffer() { 
....................   while(!TRMT); 
.................... } 
....................  
.................... int1 modbus_serial_new=0; 
....................  
.................... /******************************************************************** 
.................... These exceptions are defined in the MODBUS protocol.  These can be 
.................... used by the slave to communicate problems with the transmission back 
.................... to the master who can also use these to easily check the exceptions.   
.................... The first exception is the only one that is not part of the protocol  
.................... specification.  The TIMEOUT exception is returned when no slave  
.................... responds to the master's request within the timeout period. 
.................... ********************************************************************/ 
.................... typedef enum _exception{ILLEGAL_FUNCTION=1,ILLEGAL_DATA_ADDRESS=2,  
.................... ILLEGAL_DATA_VALUE=3,SLAVE_DEVICE_FAILURE=4,ACKNOWLEDGE=5,SLAVE_DEVICE_BUSY=6,  
.................... MEMORY_PARITY_ERROR=8,GATEWAY_PATH_UNAVAILABLE=10,GATEWAY_TARGET_NO_RESPONSE=11, 
.................... TIMEOUT=12} exception; 
....................  
.................... /******************************************************************** 
.................... These functions are defined in the MODBUS protocol.  These can be 
.................... used by the slave to check the incomming function.  See  
.................... ex_modbus_slave.c for example usage. 
.................... ********************************************************************/ 
.................... typedef enum _function{FUNC_READ_COILS=0x01,FUNC_READ_DISCRETE_INPUT=0x02, 
.................... FUNC_READ_HOLDING_REGISTERS=0x03,FUNC_READ_INPUT_REGISTERS=0x04, 
.................... FUNC_WRITE_SINGLE_COIL=0x05,FUNC_WRITE_SINGLE_REGISTER=0x06, 
.................... FUNC_READ_EXCEPTION_STATUS=0x07,FUNC_DIAGNOSTICS=0x08, 
.................... FUNC_GET_COMM_EVENT_COUNTER=0x0B,FUNC_GET_COMM_EVENT_LOG=0x0C, 
.................... FUNC_WRITE_MULTIPLE_COILS=0x0F,FUNC_WRITE_MULTIPLE_REGISTERS=0x10, 
.................... FUNC_REPORT_SLAVE_ID=0x11,FUNC_READ_FILE_RECORD=0x14, 
.................... FUNC_WRITE_FILE_RECORD=0x15,FUNC_MASK_WRITE_REGISTER=0x16, 
.................... FUNC_READ_WRITE_MULTIPLE_REGISTERS=0x17,FUNC_READ_FIFO_QUEUE=0x18} function; 
....................      
.................... /*Stages of MODBUS reception.  Used to keep our ISR fast enough.*/ 
.................... enum {MODBUS_GETADDY=0, MODBUS_GETFUNC=1, MODBUS_GETDATA=2} modbus_serial_state = 0; 
....................  
.................... /*Global value holding our current CRC value.*/ 
.................... union 
.................... { 
....................    int8 b[2]; 
....................    int16 d; 
.................... } modbus_serial_crc; 
....................  
.................... /******************************************************************** 
.................... Our receive struct.  This is used when receiving data as a master or 
.................... slave.  Once a message is sent to you with your address, you should 
.................... begin processing that message.  Refer to ex_modbus_slave.c to see  
.................... how to properly use this structure. 
.................... ********************************************************************/ 
.................... struct 
.................... { 
....................    int8 address; 
....................    int8 len;                                //number of bytes in the message received 
....................    function func;                           //the function of the message received 
....................    exception error;                         //error recieved, if any 
....................    int8 data[MODBUS_SERIAL_RX_BUFFER_SIZE]; //data of the message received 
.................... } modbus_rx; 
....................  
.................... /* Table of CRC values for highorder byte */ 
.................... const unsigned char modbus_auchCRCHi[] = { 
.................... 0x00,0xC1,0x81,0x40,0x01,0xC0,0x80,0x41,0x01,0xC0,0x80,0x41,0x00,0xC1,0x81, 
.................... 0x40,0x01,0xC0,0x80,0x41,0x00,0xC1,0x81,0x40,0x00,0xC1,0x81,0x40,0x01,0xC0, 
.................... 0x80,0x41,0x01,0xC0,0x80,0x41,0x00,0xC1,0x81,0x40,0x00,0xC1,0x81,0x40,0x01, 
.................... 0xC0,0x80,0x41,0x00,0xC1,0x81,0x40,0x01,0xC0,0x80,0x41,0x01,0xC0,0x80,0x41, 
.................... 0x00,0xC1,0x81,0x40,0x01,0xC0,0x80,0x41,0x00,0xC1,0x81,0x40,0x00,0xC1,0x81, 
.................... 0x40,0x01,0xC0,0x80,0x41,0x00,0xC1,0x81,0x40,0x01,0xC0,0x80,0x41,0x01,0xC0, 
.................... 0x80,0x41,0x00,0xC1,0x81,0x40,0x00,0xC1,0x81,0x40,0x01,0xC0,0x80,0x41,0x01, 
.................... 0xC0,0x80,0x41,0x00,0xC1,0x81,0x40,0x01,0xC0,0x80,0x41,0x00,0xC1,0x81,0x40, 
.................... 0x00,0xC1,0x81,0x40,0x01,0xC0,0x80,0x41,0x01,0xC0,0x80,0x41,0x00,0xC1,0x81, 
.................... 0x40,0x00,0xC1,0x81,0x40,0x01,0xC0,0x80,0x41,0x00,0xC1,0x81,0x40,0x01,0xC0, 
.................... 0x80,0x41,0x01,0xC0,0x80,0x41,0x00,0xC1,0x81,0x40,0x00,0xC1,0x81,0x40,0x01, 
.................... 0xC0,0x80,0x41,0x01,0xC0,0x80,0x41,0x00,0xC1,0x81,0x40,0x01,0xC0,0x80,0x41, 
.................... 0x00,0xC1,0x81,0x40,0x00,0xC1,0x81,0x40,0x01,0xC0,0x80,0x41,0x00,0xC1,0x81, 
.................... 0x40,0x01,0xC0,0x80,0x41,0x01,0xC0,0x80,0x41,0x00,0xC1,0x81,0x40,0x01,0xC0, 
.................... 0x80,0x41,0x00,0xC1,0x81,0x40,0x00,0xC1,0x81,0x40,0x01,0xC0,0x80,0x41,0x01, 
.................... 0xC0,0x80,0x41,0x00,0xC1,0x81,0x40,0x00,0xC1,0x81,0x40,0x01,0xC0,0x80,0x41, 
.................... 0x00,0xC1,0x81,0x40,0x01,0xC0,0x80,0x41,0x01,0xC0,0x80,0x41,0x00,0xC1,0x81, 
.................... 0x40 
.................... }; 
....................  
.................... /* Table of CRC values for loworder byte */ 
.................... const char modbus_auchCRCLo[] = { 
.................... 0x00,0xC0,0xC1,0x01,0xC3,0x03,0x02,0xC2,0xC6,0x06,0x07,0xC7,0x05,0xC5,0xC4, 
.................... 0x04,0xCC,0x0C,0x0D,0xCD,0x0F,0xCF,0xCE,0x0E,0x0A,0xCA,0xCB,0x0B,0xC9,0x09, 
.................... 0x08,0xC8,0xD8,0x18,0x19,0xD9,0x1B,0xDB,0xDA,0x1A,0x1E,0xDE,0xDF,0x1F,0xDD, 
.................... 0x1D,0x1C,0xDC,0x14,0xD4,0xD5,0x15,0xD7,0x17,0x16,0xD6,0xD2,0x12,0x13,0xD3, 
.................... 0x11,0xD1,0xD0,0x10,0xF0,0x30,0x31,0xF1,0x33,0xF3,0xF2,0x32,0x36,0xF6,0xF7, 
.................... 0x37,0xF5,0x35,0x34,0xF4,0x3C,0xFC,0xFD,0x3D,0xFF,0x3F,0x3E,0xFE,0xFA,0x3A, 
.................... 0x3B,0xFB,0x39,0xF9,0xF8,0x38,0x28,0xE8,0xE9,0x29,0xEB,0x2B,0x2A,0xEA,0xEE, 
.................... 0x2E,0x2F,0xEF,0x2D,0xED,0xEC,0x2C,0xE4,0x24,0x25,0xE5,0x27,0xE7,0xE6,0x26, 
.................... 0x22,0xE2,0xE3,0x23,0xE1,0x21,0x20,0xE0,0xA0,0x60,0x61,0xA1,0x63,0xA3,0xA2, 
.................... 0x62,0x66,0xA6,0xA7,0x67,0xA5,0x65,0x64,0xA4,0x6C,0xAC,0xAD,0x6D,0xAF,0x6F, 
.................... 0x6E,0xAE,0xAA,0x6A,0x6B,0xAB,0x69,0xA9,0xA8,0x68,0x78,0xB8,0xB9,0x79,0xBB, 
.................... 0x7B,0x7A,0xBA,0xBE,0x7E,0x7F,0xBF,0x7D,0xBD,0xBC,0x7C,0xB4,0x74,0x75,0xB5, 
.................... 0x77,0xB7,0xB6,0x76,0x72,0xB2,0xB3,0x73,0xB1,0x71,0x70,0xB0,0x50,0x90,0x91, 
.................... 0x51,0x93,0x53,0x52,0x92,0x96,0x56,0x57,0x97,0x55,0x95,0x94,0x54,0x9C,0x5C, 
.................... 0x5D,0x9D,0x5F,0x9F,0x9E,0x5E,0x5A,0x9A,0x9B,0x5B,0x99,0x59,0x58,0x98,0x88, 
.................... 0x48,0x49,0x89,0x4B,0x8B,0x8A,0x4A,0x4E,0x8E,0x8F,0x4F,0x8D,0x4D,0x4C,0x8C, 
.................... 0x44,0x84,0x85,0x45,0x87,0x47,0x46,0x86,0x82,0x42,0x43,0x83,0x41,0x81,0x80, 
.................... 0x40 
.................... }; 
....................  
.................... // Purpose:    Enable data reception 
.................... // Inputs:     None 
.................... // Outputs:    None 
.................... void RCV_ON(void) { 
.................... 	// Clear RX buffer. Clear RDA interrupt flag. Clear overrun error flag. 
.................... 	while ( kbhit(STREAM_PI) ) { 
00E7E:  BTFSS  F9E.5
00E80:  BRA    0E86
.................... 		fgetc(STREAM_PI); 
00E82:  RCALL  0760
.................... 	} 
00E84:  BRA    0E7E
....................  
.................... 	clear_interrupt(INT_RDA); 
.................... 	enable_interrupts(INT_RDA); 
00E86:  BSF    F9D.5
.................... } 
00E88:  RETURN 0
....................  
.................... // Purpose:    Initialize RS485 communication. Call this before 
.................... //             using any other RS485 functions. 
.................... // Inputs:     None 
.................... // Outputs:    None 
.................... void modbus_init() { 
....................  
.................... 	RCV_ON(); 
00E8A:  RCALL  0E7E
....................  
.................... 	setup_timer_0(T0_INTERNAL | T0_DIV_8 | T0_8_BIT); /* 0.683 ms @ 12 MHz. Use fosc/4 not fosc */ 
00E8C:  MOVLW  C2
00E8E:  MOVWF  FD5
.................... 	enable_interrupts(GLOBAL); 
00E90:  MOVLW  C0
00E92:  IORWF  FF2,F
.................... } 
00E94:  GOTO   2CFC (RETURN)
....................  
.................... // Purpose:    Start our timeout timer 
.................... // Inputs:     Enable, used to turn timer on/off 
.................... // Outputs:    None 
.................... void modbus_enable_timeout(int1 enable) { 
.................... 	disable_interrupts(INT_TIMER0); 
*
00408:  BCF    FF2.5
.................... 	if (enable) { 
0040A:  MOVLB  9
0040C:  MOVF   xEA,F
0040E:  BZ    0418
.................... 		set_timer0(0); 
00410:  CLRF   FD7
00412:  CLRF   FD6
.................... 		clear_interrupt(INT_TIMER0); 
00414:  BCF    FF2.2
.................... 		enable_interrupts(INT_TIMER0); 
00416:  BSF    FF2.5
.................... 	} 
.................... } 
00418:  MOVLB  0
0041A:  RETURN 0
....................  
.................... // Purpose:    Check if we have timed out waiting for a response 
.................... // Inputs:     None 
.................... // Outputs:    None 
.................... #int_timer0 
.................... void modbus_timeout_now(void) 
.................... { 
....................    if((modbus_serial_state == MODBUS_GETDATA) && (modbus_serial_crc.d == 0x0000) && (!modbus_serial_new)) 
0041C:  MOVLB  7
0041E:  MOVF   xC4,W
00420:  SUBLW  02
00422:  BNZ   0438
00424:  MOVF   xC5,F
00426:  BNZ   0438
00428:  MOVF   xC6,F
0042A:  BNZ   0438
0042C:  BTFSC  xC3.0
0042E:  BRA    0438
....................    { 
....................       modbus_rx.len-=2; 
00430:  MOVLW  02
00432:  SUBWF  xC8,F
....................       modbus_serial_new=TRUE; 
00434:  BSF    xC3.0
....................    } 
....................    else 
00436:  BRA    043A
....................       modbus_serial_new=FALSE; 
00438:  BCF    xC3.0
....................  
....................    modbus_serial_crc.d=0xFFFF; 
0043A:  SETF   xC6
0043C:  SETF   xC5
....................    modbus_serial_state=MODBUS_GETADDY; 
0043E:  CLRF   xC4
....................    modbus_enable_timeout(FALSE); 
00440:  MOVLB  9
00442:  CLRF   xEA
00444:  MOVLB  0
00446:  RCALL  0408
.................... } 
....................  
.................... // Purpose:    Calculate crc of data and updates global crc 
.................... // Inputs:     Character 
.................... // Outputs:    None 
00448:  BCF    FF2.2
0044A:  GOTO   0094
.................... void modbus_calc_crc(char data) 
.................... { 
....................   unsigned int8 uIndex ; // will index into CRC lookup table 
....................  
....................   uIndex = (modbus_serial_crc.b[1]) ^ data; // calculate the CRC 
*
00776:  MOVLB  7
00778:  MOVF   xC6,W
0077A:  MOVLB  9
0077C:  XORWF  xEA,W
0077E:  MOVWF  xEB
....................   modbus_serial_crc.b[1] = (modbus_serial_crc.b[0]) ^ modbus_auchCRCHi[uIndex]; 
00780:  CLRF   03
00782:  MOVF   xEB,W
00784:  MOVLB  0
00786:  RCALL  01E8
00788:  MOVWF  01
0078A:  MOVLB  7
0078C:  MOVF   xC5,W
0078E:  XORWF  01,W
00790:  MOVWF  xC6
....................   modbus_serial_crc.b[0] = modbus_auchCRCLo[uIndex]; 
00792:  CLRF   03
00794:  MOVLB  9
00796:  MOVF   xEB,W
00798:  MOVLB  0
0079A:  RCALL  02F8
0079C:  MOVFF  FE8,7C5
.................... } 
007A0:  RETURN 0
....................  
.................... // Purpose:    Puts a character onto the serial line 
.................... // Inputs:     Character 
.................... // Outputs:    None 
.................... void modbus_serial_putc(int8 c) { 
.................... 	timers.rda_tx_buff[timers.rda_tx_length]=c; 
*
012E4:  MOVLB  4
012E6:  MOVFF  400,FE9
012EA:  MOVLW  03
012EC:  MOVWF  FEA
012EE:  MOVFF  8EB,FEF
.................... 	timers.rda_tx_length++; 
012F2:  INCF   x00,F
012F4:  CLRF   19
012F6:  BTFSC  FF2.6
012F8:  BSF    19.6
012FA:  BCF    FF2.6
012FC:  BTFSC  FF2.7
012FE:  BSF    19.7
01300:  BCF    FF2.7
.................... 	modbus_calc_crc(c); 
01302:  MOVFF  8EB,9EA
01306:  MOVLB  0
01308:  CALL   0776
0130C:  BTFSC  19.6
0130E:  BSF    FF2.6
01310:  BTFSC  19.7
01312:  BSF    FF2.7
.................... } 
01314:  RETURN 0
....................  
....................  
.................... // Purpose:    Send a message over the RS485 bus 
.................... // Inputs:     1) The destination address 
.................... //             2) The number of bytes of data to send 
.................... //             3) A pointer to the data to send 
.................... //             4) The length of the data 
.................... // Outputs:    TRUE if successful 
.................... //             FALSE if failed 
.................... // Note:       Format:  source | destination | data-length | data | checksum 
.................... void modbus_serial_send_start(int8 to, int8 func) { 
.................... 	/* reset out transmit buffer */ 
.................... 	timers.rda_tx_length=0; 
01316:  MOVLB  4
01318:  CLRF   x00
.................... 	timers.rda_tx_pos=0; 
0131A:  CLRF   x01
....................  
.................... 	modbus_serial_crc.d=0xFFFF; 
0131C:  MOVLB  7
0131E:  SETF   xC6
01320:  SETF   xC5
.................... 	modbus_serial_new=FALSE; 
01322:  BCF    xC3.0
....................  
.................... 	modbus_serial_putc(to); 
01324:  MOVFF  8E9,8EB
01328:  MOVLB  0
0132A:  RCALL  12E4
.................... 	modbus_serial_putc(func); 
0132C:  MOVFF  8EA,8EB
01330:  RCALL  12E4
.................... } 
01332:  RETURN 0
....................  
.................... void modbus_serial_send_stop() { 
.................... 	int8 crc_low, crc_high; 
....................  
.................... 	crc_high=modbus_serial_crc.b[1]; 
01334:  MOVFF  7C6,8EA
.................... 	crc_low=modbus_serial_crc.b[0]; 
01338:  MOVFF  7C5,8E9
....................  
.................... 	modbus_serial_putc(crc_high); 
0133C:  MOVFF  8EA,8EB
01340:  RCALL  12E4
.................... 	modbus_serial_putc(crc_low); 
01342:  MOVFF  8E9,8EB
01346:  RCALL  12E4
....................  
....................  
.................... 	modbus_serial_crc.d=0xFFFF; 
01348:  MOVLB  7
0134A:  SETF   xC6
0134C:  SETF   xC5
....................  
.................... 	/* ready to transmit from buffer flag set. Elsewhere we start sending */ 
.................... 	timers.now_rda_tx_ready=1; 
0134E:  MOVLB  4
01350:  BSF    x02.0
.................... } 
01352:  MOVLB  0
01354:  RETURN 0
....................  
.................... // Purpose:    Get a message from the RS485 bus and store it in a buffer 
.................... // Inputs:     None 
.................... // Outputs:    TRUE if a message was received 
.................... //             FALSE if no message is available 
.................... // Note:       Data will be filled in at the modbus_rx struct: 
.................... int1 modbus_kbhit() 
.................... { 
....................    if(!modbus_serial_new) 
*
011A8:  MOVLB  7
011AA:  BTFSC  xC3.0
011AC:  BRA    11B6
....................       return FALSE; 
011AE:  MOVLW  00
011B0:  MOVWF  01
011B2:  BRA    11C8
....................    else if(modbus_rx.func & 0x80)           //did we receive an error? 
011B4:  BRA    11C2
011B6:  BTFSS  xC9.7
011B8:  BRA    11C2
....................    { 
....................       modbus_rx.error = modbus_rx.data[0];  //if so grab the error and return true 
011BA:  MOVFF  7CB,7CA
....................       modbus_rx.len = 1; 
011BE:  MOVLW  01
011C0:  MOVWF  xC8
....................    } 
....................    modbus_serial_new=FALSE; 
011C2:  BCF    xC3.0
....................    return TRUE; 
011C4:  MOVLW  01
011C6:  MOVWF  01
.................... } 
011C8:  MOVLB  0
011CA:  GOTO   25E4 (RETURN)
....................  
.................... /*MODBUS Slave Functions*/ 
....................  
.................... /******************************************************************** 
.................... The following structs are used for read/write_sub_request_rsp.  These 
.................... functions take in one of these structs.  Please refer to the MODBUS 
.................... protocol specification if you do not understand the members of the 
.................... structure. 
.................... ********************************************************************/ 
.................... typedef struct _modbus_read_sub_request_rsp 
.................... { 
....................    int8 record_length; 
....................    int8 reference_type; 
....................    int16 data[((MODBUS_SERIAL_RX_BUFFER_SIZE)/2)-3]; 
.................... } modbus_read_sub_request_rsp; 
....................  
.................... typedef struct _modbus_write_sub_request_rsp 
.................... { 
....................    int8 reference_type; 
....................    int16 file_number; 
....................    int16 record_number; 
....................    int16 record_length; 
....................    int16 data[((MODBUS_SERIAL_RX_BUFFER_SIZE)/2)-8]; 
.................... } modbus_write_sub_request_rsp; 
....................  
....................  
.................... /******************************************************************** 
.................... The following slave functions are defined in the MODBUS protocol. 
.................... Please refer to http://www.modbus.org for the purpose of each of 
.................... these.  All functions take the slaves address as their first 
.................... parameter. 
.................... ********************************************************************/ 
....................  
.................... /* 
.................... read_coils_rsp 
.................... Input:     int8       address            Slave Address 
....................            int8       byte_count         Number of bytes being sent 
....................            int8*      coil_data          Pointer to an array of data to send 
.................... Output:    void 
.................... */ 
.................... void modbus_read_coils_rsp(int8 address, int8 byte_count, int8* coil_data) 
.................... { 
....................    int8 i; 
....................  
....................    modbus_serial_send_start(address, FUNC_READ_COILS); 
....................  
....................    modbus_serial_putc(byte_count); 
....................  
....................    for(i=0; i < byte_count; ++i) 
....................    { 
....................       modbus_serial_putc(*coil_data); 
....................       coil_data++; 
....................    } 
....................  
....................    modbus_serial_send_stop(); 
.................... } 
....................  
.................... /* 
.................... read_discrete_input_rsp 
.................... Input:     int8       address            Slave Address 
....................            int8       byte_count         Number of bytes being sent 
....................            int8*      input_data         Pointer to an array of data to send 
.................... Output:    void 
.................... */ 
.................... void modbus_read_discrete_input_rsp(int8 address, int8 byte_count,  
....................                                     int8 *input_data) 
.................... { 
....................    int8 i; 
....................  
....................    modbus_serial_send_start(address, FUNC_READ_DISCRETE_INPUT); 
....................  
....................    modbus_serial_putc(byte_count); 
....................  
....................    for(i=0; i < byte_count; ++i) 
....................    { 
....................       modbus_serial_putc(*input_data); 
....................       input_data++; 
....................    } 
....................  
....................    modbus_serial_send_stop(); 
.................... } 
....................  
.................... /* 
.................... read_holding_registers_rsp 
.................... Input:     int8       address            Slave Address 
....................            int8       byte_count         Number of bytes being sent 
....................            int8*      reg_data           Pointer to an array of data to send 
.................... Output:    void 
.................... */ 
.................... void modbus_read_holding_registers_rsp(int8 address, int8 byte_count,  
....................                                         int8 *reg_data) 
.................... { 
....................    int8 i; 
....................  
....................    modbus_serial_send_start(address, FUNC_READ_HOLDING_REGISTERS); 
....................  
....................    modbus_serial_putc(byte_count); 
....................  
....................    for(i=0; i < byte_count; ++i) 
....................    { 
....................       modbus_serial_putc(*reg_data); 
....................       reg_data++; 
....................    } 
....................  
....................    modbus_serial_send_stop(); 
.................... } 
....................  
.................... /* 
.................... read_input_registers_rsp 
.................... Input:     int8       address            Slave Address 
....................            int8       byte_count         Number of bytes being sent 
....................            int8*      input_data         Pointer to an array of data to send 
.................... Output:    void 
.................... */ 
.................... void modbus_read_input_registers_rsp(int8 address, int8 byte_count,  
....................                                         int8 *input_data) 
.................... { 
....................    int8 i; 
....................  
....................    modbus_serial_send_start(address, FUNC_READ_INPUT_REGISTERS); 
....................  
....................    modbus_serial_putc(byte_count); 
....................  
....................    for(i=0; i < byte_count; ++i) 
....................    { 
....................       modbus_serial_putc(*input_data); 
....................       input_data++; 
....................    } 
....................  
....................    modbus_serial_send_stop(); 
.................... } 
....................  
.................... /* 
.................... write_single_coil_rsp 
.................... Input:     int8       address            Slave Address 
....................            int16      output_address     Echo of output address received 
....................            int16      output_value       Echo of output value received 
.................... Output:    void 
.................... */ 
.................... void modbus_write_single_coil_rsp(int8 address, int16 output_address,  
....................                                     int16 output_value) 
.................... { 
....................    modbus_serial_send_start(address, FUNC_WRITE_SINGLE_COIL); 
....................  
....................    modbus_serial_putc(make8(output_address,1)); 
....................    modbus_serial_putc(make8(output_address,0)); 
....................  
....................    modbus_serial_putc(make8(output_value,1)); 
....................    modbus_serial_putc(make8(output_value,0)); 
....................  
....................    modbus_serial_send_stop(); 
.................... } 
....................  
.................... /* 
.................... write_single_register_rsp 
.................... Input:     int8       address            Slave Address 
....................            int16      reg_address        Echo of register address received 
....................            int16      reg_value          Echo of register value received 
.................... Output:    void 
.................... */ 
.................... void modbus_write_single_register_rsp(int8 address, int16 reg_address,  
....................                                         int16 reg_value) 
.................... { 
....................    modbus_serial_send_start(address, FUNC_WRITE_SINGLE_REGISTER); 
*
02550:  MOVFF  8E1,8E9
02554:  MOVLW  06
02556:  MOVLB  8
02558:  MOVWF  xEA
0255A:  MOVLB  0
0255C:  CALL   1316
....................  
....................    modbus_serial_putc(make8(reg_address,1)); 
02560:  MOVFF  8E3,8E6
02564:  MOVFF  8E3,8EB
02568:  CALL   12E4
....................    modbus_serial_putc(make8(reg_address,0)); 
0256C:  MOVFF  8E2,8E6
02570:  MOVFF  8E2,8EB
02574:  CALL   12E4
....................  
....................    modbus_serial_putc(make8(reg_value,1)); 
02578:  MOVFF  8E5,8E6
0257C:  MOVFF  8E5,8EB
02580:  CALL   12E4
....................    modbus_serial_putc(make8(reg_value,0)); 
02584:  MOVFF  8E4,8E6
02588:  MOVFF  8E4,8EB
0258C:  CALL   12E4
....................  
....................    modbus_serial_send_stop(); 
02590:  CALL   1334
.................... } 
02594:  GOTO   27CA (RETURN)
....................  
.................... /* 
.................... read_exception_status_rsp 
.................... Input:     int8       address            Slave Address 
.................... Output:    void 
.................... */ 
.................... void modbus_read_exception_status_rsp(int8 address, int8 data) 
.................... { 
....................    modbus_serial_send_start(address, FUNC_READ_EXCEPTION_STATUS); 
....................    modbus_serial_send_stop(); 
.................... } 
....................  
.................... /* 
.................... diagnostics_rsp 
.................... Input:     int8       address            Slave Address 
....................            int16      sub_func           Echo of sub function received 
....................            int16      data               Echo of data received 
.................... Output:    void 
.................... */ 
.................... void modbus_diagnostics_rsp(int8 address, int16 sub_func, int16 data) 
.................... { 
....................    modbus_serial_send_start(address, FUNC_DIAGNOSTICS); 
....................  
....................    modbus_serial_putc(make8(sub_func,1)); 
....................    modbus_serial_putc(make8(sub_func,0)); 
....................  
....................    modbus_serial_putc(make8(data,1)); 
....................    modbus_serial_putc(make8(data,0)); 
....................  
....................    modbus_serial_send_stop(); 
.................... } 
....................  
.................... /* 
.................... get_comm_event_counter_rsp 
.................... Input:     int8       address            Slave Address 
....................            int16      status             Status, refer to MODBUS documentation 
....................            int16      event_count        Count of events 
.................... Output:    void 
.................... */ 
.................... void modbus_get_comm_event_counter_rsp(int8 address, int16 status,  
....................                                         int16 event_count) 
.................... { 
....................    modbus_serial_send_start(address, FUNC_GET_COMM_EVENT_COUNTER); 
....................  
....................    modbus_serial_putc(make8(status, 1)); 
....................    modbus_serial_putc(make8(status, 0)); 
....................  
....................    modbus_serial_putc(make8(event_count, 1)); 
....................    modbus_serial_putc(make8(event_count, 0)); 
....................  
....................    modbus_serial_send_stop(); 
.................... } 
....................  
.................... /* 
.................... get_comm_event_counter_rsp 
.................... Input:     int8       address            Slave Address 
....................            int16      status             Status, refer to MODBUS documentation 
....................            int16      event_count        Count of events 
....................            int16      message_count      Count of messages 
....................            int8*      events             Pointer to event data 
....................            int8       events_len         Length of event data in bytes 
.................... Output:    void 
.................... */ 
.................... void modbus_get_comm_event_log_rsp(int8 address, int16 status, 
....................                                     int16 event_count, int16 message_count,  
....................                                     int8 *events, int8 events_len) 
.................... { 
....................    int8 i; 
....................      
....................    modbus_serial_send_start(address, FUNC_GET_COMM_EVENT_LOG); 
....................  
....................    modbus_serial_putc(events_len+6); 
....................  
....................    modbus_serial_putc(make8(status, 1)); 
....................    modbus_serial_putc(make8(status, 0)); 
....................  
....................    modbus_serial_putc(make8(event_count, 1)); 
....................    modbus_serial_putc(make8(event_count, 0)); 
....................  
....................    modbus_serial_putc(make8(message_count, 1)); 
....................    modbus_serial_putc(make8(message_count, 0)); 
....................  
....................    for(i=0; i < events_len; ++i) 
....................    { 
....................       modbus_serial_putc(*events); 
....................       events++; 
....................    } 
....................  
....................    modbus_serial_send_stop(); 
.................... } 
....................  
.................... /* 
.................... write_multiple_coils_rsp 
.................... Input:     int8       address            Slave Address 
....................            int16      start_address      Echo of address to start at 
....................            int16      quantity           Echo of amount of coils written to 
.................... Output:    void 
.................... */ 
.................... void modbus_write_multiple_coils_rsp(int8 address, int16 start_address,  
....................                                         int16 quantity) 
.................... { 
....................    modbus_serial_send_start(address, FUNC_WRITE_MULTIPLE_COILS); 
....................  
....................    modbus_serial_putc(make8(start_address,1)); 
....................    modbus_serial_putc(make8(start_address,0)); 
....................  
....................    modbus_serial_putc(make8(quantity,1)); 
....................    modbus_serial_putc(make8(quantity,0)); 
....................  
....................    modbus_serial_send_stop(); 
.................... } 
....................  
.................... /* 
.................... write_multiple_registers_rsp 
.................... Input:     int8       address            Slave Address 
....................            int16      start_address      Echo of address to start at 
....................            int16      quantity           Echo of amount of registers written to 
.................... Output:    void 
.................... */ 
.................... void modbus_write_multiple_registers_rsp(int8 address, int16 start_address,  
....................                                             int16 quantity) 
.................... { 
....................    modbus_serial_send_start(address, FUNC_WRITE_MULTIPLE_REGISTERS); 
02598:  MOVFF  8DF,8E9
0259C:  MOVLW  10
0259E:  MOVLB  8
025A0:  MOVWF  xEA
025A2:  MOVLB  0
025A4:  CALL   1316
....................  
....................    modbus_serial_putc(make8(start_address,1)); 
025A8:  MOVFF  8E1,8E4
025AC:  MOVFF  8E1,8EB
025B0:  CALL   12E4
....................    modbus_serial_putc(make8(start_address,0)); 
025B4:  MOVFF  8E0,8E4
025B8:  MOVFF  8E0,8EB
025BC:  CALL   12E4
....................  
....................    modbus_serial_putc(make8(quantity,1)); 
025C0:  MOVFF  8E3,8E4
025C4:  MOVFF  8E3,8EB
025C8:  CALL   12E4
....................    modbus_serial_putc(make8(quantity,0)); 
025CC:  MOVFF  8E2,8E4
025D0:  MOVFF  8E2,8EB
025D4:  CALL   12E4
....................  
....................    modbus_serial_send_stop(); 
025D8:  CALL   1334
.................... } 
025DC:  GOTO   288C (RETURN)
....................  
.................... /* 
.................... report_slave_id_rsp 
.................... Input:     int8       address            Slave Address 
....................            int8       slave_id           Slave Address 
....................            int8       run_status         Are we running? 
....................            int8*      data               Pointer to an array holding the data 
....................            int8       data_len           Length of data in bytes 
.................... Output:    void 
.................... */ 
.................... void modbus_report_slave_id_rsp(int8 address, int8 slave_id, int1 run_status, 
....................                               int8 *data, int8 data_len) 
.................... { 
....................    int8 i; 
....................  
....................    modbus_serial_send_start(address, FUNC_REPORT_SLAVE_ID); 
....................  
....................    modbus_serial_putc(data_len+2); 
....................    modbus_serial_putc(slave_id); 
....................  
....................    if(run_status) 
....................     modbus_serial_putc(0xFF); 
....................    else 
....................     modbus_serial_putc(0x00); 
....................  
....................    for(i=0; i < data_len; ++i) 
....................    { 
....................       modbus_serial_putc(*data); 
....................       data++; 
....................    } 
....................  
....................    modbus_serial_send_stop(); 
.................... } 
....................  
.................... /* 
.................... read_file_record_rsp 
.................... Input:     int8                     address            Slave Address 
....................            int8                     byte_count         Number of bytes to send 
....................            read_sub_request_rsp*    request            Structure holding record/data information 
.................... Output:    void 
.................... */ 
.................... void modbus_read_file_record_rsp(int8 address, int8 byte_count,  
....................                                     modbus_read_sub_request_rsp *request) 
.................... { 
....................    int8 i=0,j; 
....................  
....................    modbus_serial_send_start(address, FUNC_READ_FILE_RECORD); 
....................  
....................    modbus_serial_putc(byte_count); 
....................  
....................    while(i < byte_count); 
....................    { 
....................       modbus_serial_putc(request->record_length); 
....................       modbus_serial_putc(request->reference_type); 
....................  
....................       for(j=0; (j < request->record_length); j+=2) 
....................       { 
....................          modbus_serial_putc(make8(request->data[j], 1)); 
....................          modbus_serial_putc(make8(request->data[j], 0)); 
....................       } 
....................  
....................       i += (request->record_length)+1; 
....................       request++; 
....................    } 
....................  
....................    modbus_serial_send_stop(); 
.................... } 
....................  
.................... /* 
.................... write_file_record_rsp 
.................... Input:     int8                     address            Slave Address 
....................            int8                     byte_count         Echo of number of bytes sent 
....................            write_sub_request_rsp*   request            Echo of Structure holding record information 
.................... Output:    void 
.................... */ 
.................... void modbus_write_file_record_rsp(int8 address, int8 byte_count,  
....................                                     modbus_write_sub_request_rsp *request) 
.................... { 
....................    int8 i, j=0; 
....................  
....................    modbus_serial_send_start(address, FUNC_WRITE_FILE_RECORD); 
....................  
....................    modbus_serial_putc(byte_count); 
....................  
....................    for(i=0; i < byte_count; i+=(7+(j*2))) 
....................    { 
....................       modbus_serial_putc(request->reference_type); 
....................       modbus_serial_putc(make8(request->file_number, 1)); 
....................       modbus_serial_putc(make8(request->file_number, 0)); 
....................       modbus_serial_putc(make8(request->record_number, 1)); 
....................       modbus_serial_putc(make8(request->record_number, 0)); 
....................       modbus_serial_putc(make8(request->record_length, 1)); 
....................       modbus_serial_putc(make8(request->record_length, 0)); 
....................  
....................       for(j=0; (j < request->record_length); j+=2) 
....................       { 
....................          modbus_serial_putc(make8(request->data[j], 1)); 
....................          modbus_serial_putc(make8(request->data[j], 0)); 
....................       } 
....................    } 
....................  
....................    modbus_serial_send_stop(); 
.................... } 
....................  
.................... /* 
.................... mask_write_register_rsp 
.................... Input:     int8        address            Slave Address 
....................            int16       reference_address  Echo of reference address 
....................            int16       AND_mask           Echo of AND mask 
....................            int16       OR_mask            Echo or OR mask 
.................... Output:    void 
.................... */ 
.................... void modbus_mask_write_register_rsp(int8 address, int16 reference_address, 
....................                            int16 AND_mask, int16 OR_mask) 
.................... { 
....................    modbus_serial_send_start(address, FUNC_MASK_WRITE_REGISTER); 
....................  
....................    modbus_serial_putc(make8(reference_address,1)); 
....................    modbus_serial_putc(make8(reference_address,0)); 
....................  
....................    modbus_serial_putc(make8(AND_mask,1)); 
....................    modbus_serial_putc(make8(AND_mask,0)); 
....................  
....................    modbus_serial_putc(make8(OR_mask, 1)); 
....................    modbus_serial_putc(make8(OR_mask, 0)); 
....................  
....................    modbus_serial_send_stop(); 
.................... } 
....................  
.................... /* 
.................... read_write_multiple_registers_rsp 
.................... Input:     int8        address            Slave Address 
....................            int16*      data               Pointer to an array of data 
....................            int8        data_len           Length of data in bytes 
.................... Output:    void 
.................... */ 
.................... void modbus_read_write_multiple_registers_rsp(int8 address, int8 data_len,  
....................                                                 int16 *data) 
.................... { 
....................    int8 i; 
....................  
....................    modbus_serial_send_start(address, FUNC_READ_WRITE_MULTIPLE_REGISTERS); 
....................  
....................    modbus_serial_putc(data_len*2); 
....................  
....................    for(i=0; i < data_len*2; i+=2) 
....................    { 
....................       modbus_serial_putc(make8(data[i], 1)); 
....................       modbus_serial_putc(make8(data[i], 0)); 
....................    } 
....................  
....................    modbus_serial_send_stop(); 
.................... } 
....................  
.................... /* 
.................... read_FIFO_queue_rsp 
.................... Input:     int8        address            Slave Address 
....................            int16       FIFO_len           Length of FIFO in bytes 
....................            int16*      data               Pointer to an array of data 
.................... Output:    void 
.................... */ 
.................... void modbus_read_FIFO_queue_rsp(int8 address, int16 FIFO_len, int16 *data) 
.................... { 
....................    int8 i; 
....................    int16 byte_count; 
....................  
....................    byte_count = ((FIFO_len*2)+2); 
....................  
....................    modbus_serial_send_start(address, FUNC_READ_FIFO_QUEUE); 
....................  
....................    modbus_serial_putc(make8(byte_count, 1)); 
....................    modbus_serial_putc(make8(byte_count, 0)); 
....................  
....................    modbus_serial_putc(make8(FIFO_len, 1)); 
....................    modbus_serial_putc(make8(FIFO_len, 0)); 
....................  
....................    for(i=0; i < FIFO_len; i+=2) 
....................    { 
....................       modbus_serial_putc(make8(data[i], 1)); 
....................       modbus_serial_putc(make8(data[i], 0)); 
....................    } 
....................  
....................    modbus_serial_send_stop(); 
.................... } 
....................  
.................... void modbus_exception_rsp(int8 address, int16 func, exception error) 
.................... { 
....................    modbus_serial_send_start(address, func|0x80); 
*
01356:  MOVLB  8
01358:  MOVF   xE0,W
0135A:  IORLW  80
0135C:  MOVWF  xE3
0135E:  MOVFF  8E1,8E4
01362:  MOVFF  8DF,8E9
01366:  MOVWF  xEA
01368:  MOVLB  0
0136A:  RCALL  1316
....................    modbus_serial_putc(error); 
0136C:  MOVFF  8E2,8EB
01370:  RCALL  12E4
....................    modbus_serial_send_stop(); 
01372:  RCALL  1334
.................... } 
01374:  RETURN 0
....................  
....................  
.................... #include "modbus_handler_pcwx.c" 
.................... #define MAX_STATUS_REGISTER          53 
....................  
.................... #define MIN_CONFIG_REGISTER          1000 
.................... #define MAX_CONFIG_REGISTER          1013 
....................  
.................... #define MIN_NMEA0183_CONFIG_REGISTER 1100 
.................... #define MAX_NMEA0183_CONFIG_REGISTER 1100 + N_NMEA0183_SENTENCES*6 
....................  
.................... #define MIN_EE_REGISTER              2000 
.................... #define MAX_EE_REGISTER              MIN_EE_REGISTER + 512 
....................  
.................... #define MIN_NMEA0183_BYTE_REGISTER   5000 
.................... #define MAX_NMEA0183_BYTE_REGISTER   MIN_NMEA0183_BYTE_REGISTER + N_NMEA0183_SENTENCES*80 
....................  
.................... #define MIN_NMEA0183_WORD_REGISTER   6000 
.................... #define MAX_NMEA0183_WORD_REGISTER   MIN_NMEA0183_WORD_REGISTER + N_NMEA0183_SENTENCES*40 
....................  
....................  
.................... /* This function may come in handy for you since MODBUS uses MSB first. */ 
.................... int8 swap_bits(int8 c) { 
.................... 	return ((c&1)?128:0)|((c&2)?64:0)|((c&4)?32:0)|((c&8)?16:0)|((c&16)?8:0)|((c&32)?4:0)|((c&64)?2:0)|((c&128)?1:0); 
.................... } 
....................  
.................... void reset_modbus_stats(void) { 
.................... 	current.modbus_our_packets=0; 
*
014C6:  MOVLB  1
014C8:  CLRF   xCD
014CA:  CLRF   xCC
.................... 	current.modbus_other_packets=0; 
014CC:  CLRF   xCF
014CE:  CLRF   xCE
.................... 	current.modbus_last_error=0; 
014D0:  CLRF   xD1
014D2:  CLRF   xD0
.................... } 
014D4:  MOVLB  0
014D6:  GOTO   1F6E (RETURN)
....................  
.................... void reset_counters(void) { 
.................... 	disable_interrupts(GLOBAL); 
*
01462:  BCF    FF2.6
01464:  BCF    FF2.7
01466:  BTFSC  FF2.7
01468:  BRA    1464
....................  
.................... 	current.pulse_count[0]=0; 
0146A:  CLRF   xAA
0146C:  CLRF   xA9
.................... 	current.pulse_count[1]=0; 
0146E:  CLRF   xAC
01470:  CLRF   xAB
.................... 	current.pulse_count[2]=0; 
01472:  CLRF   xAE
01474:  CLRF   xAD
....................  
.................... 	/* pulse period is reset in interrupt */ 
.................... 	current.pulse_min_period[0]=65535; 
01476:  SETF   x9E
01478:  SETF   x9D
.................... 	current.pulse_min_period[1]=65535; 
0147A:  SETF   xA0
0147C:  SETF   x9F
.................... 	current.pulse_min_period[2]=65535; 
0147E:  SETF   xA2
01480:  SETF   xA1
.................... 	 
.................... 	current.pulse_max_period[0]=0; 
01482:  CLRF   xA4
01484:  CLRF   xA3
.................... 	current.pulse_max_period[1]=0; 
01486:  CLRF   xA6
01488:  CLRF   xA5
.................... 	current.pulse_max_period[2]=0; 
0148A:  CLRF   xA8
0148C:  CLRF   xA7
.................... 	 
....................  
.................... 	current.interval_milliseconds=0; 
0148E:  MOVLB  1
01490:  CLRF   xD7
01492:  CLRF   xD6
....................  
.................... 	enable_interrupts(GLOBAL); 
01494:  MOVLW  C0
01496:  IORWF  FF2,F
.................... } 
01498:  MOVLB  0
0149A:  GOTO   1F1E (RETURN)
....................  
.................... void reset_pulse_sum(void) { 
.................... 	disable_interrupts(GLOBAL); 
0149E:  BCF    FF2.6
014A0:  BCF    FF2.7
014A2:  BTFSC  FF2.7
014A4:  BRA    14A0
.................... 	current.pulse_sum[0]=0; 
014A6:  CLRF   xB2
014A8:  CLRF   xB1
014AA:  CLRF   xB0
014AC:  CLRF   xAF
.................... 	current.pulse_sum[1]=0; 
014AE:  CLRF   xB6
014B0:  CLRF   xB5
014B2:  CLRF   xB4
014B4:  CLRF   xB3
.................... 	current.pulse_sum[2]=0; 
014B6:  CLRF   xBA
014B8:  CLRF   xB9
014BA:  CLRF   xB8
014BC:  CLRF   xB7
.................... 	enable_interrupts(GLOBAL); 
014BE:  MOVLW  C0
014C0:  IORWF  FF2,F
.................... } 
014C2:  GOTO   1F2E (RETURN)
....................  
.................... int32 get_pulse_sum(int8 ch) { 
.................... 	int32 l; 
....................  
.................... 	disable_interrupts(GLOBAL); 
*
01376:  BCF    FF2.6
01378:  BCF    FF2.7
0137A:  BTFSC  FF2.7
0137C:  BRA    1378
.................... 	l=current.pulse_sum[ch]; 
0137E:  MOVLB  9
01380:  CLRF   xDE
01382:  MOVFF  8F1,9DD
01386:  CLRF   xE0
01388:  MOVLW  04
0138A:  MOVWF  xDF
0138C:  MOVLB  0
0138E:  CALL   08D4
01392:  MOVFF  02,03
01396:  MOVF   01,W
01398:  ADDLW  AF
0139A:  MOVWF  FE9
0139C:  MOVLW  00
0139E:  ADDWFC 02,W
013A0:  MOVWF  FEA
013A2:  MOVFF  FEF,00
013A6:  MOVFF  FEC,01
013AA:  MOVFF  FEC,02
013AE:  MOVFF  FEC,03
013B2:  MOVFF  03,8F5
013B6:  MOVFF  02,8F4
013BA:  MOVFF  01,8F3
013BE:  MOVFF  00,8F2
.................... 	enable_interrupts(GLOBAL); 
013C2:  MOVLW  C0
013C4:  IORWF  FF2,F
....................  
.................... 	return l; 
013C6:  MOVFF  8F2,00
013CA:  MOVFF  8F3,01
013CE:  MOVFF  8F4,02
013D2:  MOVFF  8F5,03
.................... } 
013D6:  RETURN 0
....................  
.................... int16 map_modbus(int16 addr) { 
.................... 	static u_lblock ps; 
.................... 	int8 n,o; 
.................... 	int8 *p; 
....................  
.................... 	if ( addr >= MIN_EE_REGISTER && addr < MAX_EE_REGISTER ) { 
*
014DA:  MOVLB  8
014DC:  MOVF   xEC,W
014DE:  SUBLW  06
014E0:  BC    1536
014E2:  XORLW  FF
014E4:  BNZ   14EC
014E6:  MOVF   xEB,W
014E8:  SUBLW  CF
014EA:  BC    1536
014EC:  MOVF   xEC,W
014EE:  SUBLW  09
014F0:  BNC   1536
014F2:  BNZ   14FA
014F4:  MOVF   xEB,W
014F6:  SUBLW  CF
014F8:  BNC   1536
.................... 		return (int16) read_eeprom(addr - MIN_EE_REGISTER + EE_FOR_HOST_ADDRESS); 
014FA:  MOVLW  D0
014FC:  SUBWF  xEB,W
014FE:  MOVWF  xF1
01500:  MOVLW  07
01502:  SUBWFB xEC,W
01504:  MOVWF  xF2
01506:  MOVLW  02
01508:  ADDWF  xF2,F
0150A:  MOVFF  FF2,8F3
0150E:  BCF    FF2.6
01510:  BCF    FF2.7
01512:  MOVFF  8F2,FAA
01516:  MOVFF  8F1,FA9
0151A:  BCF    FA6.6
0151C:  BCF    FA6.7
0151E:  BSF    FA6.0
01520:  MOVF   FA8,W
01522:  BTFSC  xF3.6
01524:  BSF    FF2.6
01526:  BTFSC  xF3.7
01528:  BSF    FF2.7
0152A:  CLRF   03
0152C:  MOVWF  01
0152E:  MOVF   03,W
01530:  MOVWF  02
01532:  GOTO   20E2
.................... 	} 
....................  
.................... 	if ( addr >= MIN_NMEA0183_CONFIG_REGISTER && addr < MAX_NMEA0183_CONFIG_REGISTER ) { 
01536:  MOVF   xEC,W
01538:  SUBLW  03
0153A:  BC    15BA
0153C:  XORLW  FF
0153E:  BNZ   1546
01540:  MOVF   xEB,W
01542:  SUBLW  4B
01544:  BC    15BA
01546:  MOVF   xEC,W
01548:  SUBLW  04
0154A:  BNC   15BA
0154C:  BNZ   1554
0154E:  MOVF   xEB,W
01550:  SUBLW  93
01552:  BNC   15BA
.................... 		/* get rid of our base */ 
.................... 		n = (addr-MIN_NMEA0183_CONFIG_REGISTER); 
01554:  MOVLW  4C
01556:  SUBWF  xEB,W
01558:  MOVWF  xED
....................  
.................... 		/* configurable sentence parts are the first 6 characters */ 
.................... 		o = n % 6; /* offset into sentence */ 
0155A:  MOVFF  8ED,8F1
0155E:  MOVLW  06
01560:  MOVWF  xF2
01562:  MOVLB  0
01564:  CALL   0B48
01568:  MOVFF  00,8EE
.................... 		n = n / 6; /* number of sentence */ 
0156C:  MOVFF  8ED,8F1
01570:  MOVLW  06
01572:  MOVLB  8
01574:  MOVWF  xF2
01576:  MOVLB  0
01578:  CALL   0B48
0157C:  MOVFF  01,8ED
....................  
.................... 		return (int16) config.nmea0183_sentence[n][o]; 
01580:  MOVLB  8
01582:  MOVF   xED,W
01584:  MULLW  06
01586:  MOVF   FF3,W
01588:  CLRF   03
0158A:  ADDLW  19
0158C:  MOVWF  xF1
0158E:  MOVLW  00
01590:  ADDWFC 03,W
01592:  MOVWF  xF2
01594:  CLRF   03
01596:  MOVF   xEE,W
01598:  ADDWF  xF1,W
0159A:  MOVWF  01
0159C:  MOVF   xF2,W
0159E:  ADDWFC 03,F
015A0:  MOVF   01,W
015A2:  ADDLW  36
015A4:  MOVWF  FE9
015A6:  MOVLW  00
015A8:  ADDWFC 03,W
015AA:  MOVWF  FEA
015AC:  MOVF   FEF,W
015AE:  CLRF   03
015B0:  MOVWF  01
015B2:  MOVFF  03,02
015B6:  GOTO   20E2
.................... 	} 
....................  
.................... 	/* one byte per register for NMEA0183 sentences */ 
.................... 	if ( addr >= MIN_NMEA0183_BYTE_REGISTER && addr < MAX_NMEA0183_BYTE_REGISTER ) { 
015BA:  MOVF   xEC,W
015BC:  SUBLW  12
015BE:  BC    1602
015C0:  XORLW  FF
015C2:  BNZ   15CA
015C4:  MOVF   xEB,W
015C6:  SUBLW  87
015C8:  BC    1602
015CA:  MOVF   xEC,W
015CC:  SUBLW  17
015CE:  BNC   1602
015D0:  BNZ   15D8
015D2:  MOVF   xEB,W
015D4:  SUBLW  47
015D6:  BNC   1602
.................... 		/* get rid of our base */ 
.................... 		addr = (addr-MIN_NMEA0183_BYTE_REGISTER); 
015D8:  MOVLW  88
015DA:  SUBWF  xEB,F
015DC:  MOVLW  13
015DE:  SUBWFB xEC,F
....................  
....................  		p  = nmea.sentence[0]; 
015E0:  MOVLW  04
015E2:  MOVWF  xF0
015E4:  MOVLW  03
015E6:  MOVWF  xEF
.................... 		return (int16) p[addr]; 
015E8:  MOVF   xEF,W
015EA:  ADDWF  xEB,W
015EC:  MOVWF  FE9
015EE:  MOVF   xF0,W
015F0:  ADDWFC xEC,W
015F2:  MOVWF  FEA
015F4:  MOVF   FEF,W
015F6:  CLRF   03
015F8:  MOVWF  01
015FA:  MOVFF  03,02
015FE:  GOTO   20E2
.................... 	} 
....................  
.................... 	/* two bytes per register for NMEA0183 sentences */ 
.................... 	if ( addr >= MIN_NMEA0183_WORD_REGISTER && addr < MAX_NMEA0183_WORD_REGISTER ) { 
01602:  MOVF   xEC,W
01604:  SUBLW  16
01606:  BC    1672
01608:  XORLW  FF
0160A:  BNZ   1612
0160C:  MOVF   xEB,W
0160E:  SUBLW  6F
01610:  BC    1672
01612:  MOVF   xEC,W
01614:  SUBLW  19
01616:  BNC   1672
01618:  BNZ   1620
0161A:  MOVF   xEB,W
0161C:  SUBLW  4F
0161E:  BNC   1672
.................... 		/* get rid of our base */ 
.................... 		addr = (addr-MIN_NMEA0183_WORD_REGISTER); 
01620:  MOVLW  70
01622:  SUBWF  xEB,F
01624:  MOVLW  17
01626:  SUBWFB xEC,F
.................... 		addr = addr * 2; 
01628:  BCF    FD8.0
0162A:  RLCF   xEB,F
0162C:  RLCF   xEC,F
....................  
....................  		p  = nmea.sentence[0]; 
0162E:  MOVLW  04
01630:  MOVWF  xF0
01632:  MOVLW  03
01634:  MOVWF  xEF
.................... 		return (int16) make16(p[addr],p[addr+1]); 
01636:  MOVF   xEF,W
01638:  ADDWF  xEB,W
0163A:  MOVWF  FE9
0163C:  MOVF   xF0,W
0163E:  ADDWFC xEC,W
01640:  MOVWF  FEA
01642:  MOVFF  FEF,8F1
01646:  MOVLW  01
01648:  ADDWF  xEB,W
0164A:  MOVWF  xF2
0164C:  MOVLW  00
0164E:  ADDWFC xEC,W
01650:  MOVWF  xF3
01652:  MOVF   xEF,W
01654:  ADDWF  xF2,W
01656:  MOVWF  FE9
01658:  MOVF   xF0,W
0165A:  ADDWFC xF3,W
0165C:  MOVWF  FEA
0165E:  MOVFF  FEF,8F4
01662:  MOVFF  8F1,03
01666:  MOVFF  8F4,01
0166A:  MOVFF  8F1,02
0166E:  GOTO   20E2
.................... 	} 
....................  
....................  
....................  
.................... 	switch ( addr ) { 
01672:  MOVF   xEB,W
01674:  MOVWF  00
01676:  MOVF   xEC,W
01678:  MOVWF  03
0167A:  MOVF   03,W
0167C:  BNZ   1688
0167E:  MOVF   00,F
01680:  MOVLB  0
01682:  BTFSC  FD8.2
01684:  BRA    1AD6
01686:  MOVLB  8
01688:  MOVF   03,W
0168A:  BNZ   1698
0168C:  MOVLW  01
0168E:  SUBWF  00,W
01690:  MOVLB  0
01692:  BTFSC  FD8.2
01694:  BRA    1AE4
01696:  MOVLB  8
01698:  MOVF   03,W
0169A:  BNZ   16A8
0169C:  MOVLW  02
0169E:  SUBWF  00,W
016A0:  MOVLB  0
016A2:  BTFSC  FD8.2
016A4:  BRA    1AF2
016A6:  MOVLB  8
016A8:  MOVF   03,W
016AA:  BNZ   16B8
016AC:  MOVLW  03
016AE:  SUBWF  00,W
016B0:  MOVLB  0
016B2:  BTFSC  FD8.2
016B4:  BRA    1B00
016B6:  MOVLB  8
016B8:  MOVF   03,W
016BA:  BNZ   16C8
016BC:  MOVLW  04
016BE:  SUBWF  00,W
016C0:  MOVLB  0
016C2:  BTFSC  FD8.2
016C4:  BRA    1B0E
016C6:  MOVLB  8
016C8:  MOVF   03,W
016CA:  BNZ   16D8
016CC:  MOVLW  05
016CE:  SUBWF  00,W
016D0:  MOVLB  0
016D2:  BTFSC  FD8.2
016D4:  BRA    1B34
016D6:  MOVLB  8
016D8:  MOVF   03,W
016DA:  BNZ   16E8
016DC:  MOVLW  06
016DE:  SUBWF  00,W
016E0:  MOVLB  0
016E2:  BTFSC  FD8.2
016E4:  BRA    1B42
016E6:  MOVLB  8
016E8:  MOVF   03,W
016EA:  BNZ   16F8
016EC:  MOVLW  07
016EE:  SUBWF  00,W
016F0:  MOVLB  0
016F2:  BTFSC  FD8.2
016F4:  BRA    1B50
016F6:  MOVLB  8
016F8:  MOVF   03,W
016FA:  BNZ   1708
016FC:  MOVLW  08
016FE:  SUBWF  00,W
01700:  MOVLB  0
01702:  BTFSC  FD8.2
01704:  BRA    1B5E
01706:  MOVLB  8
01708:  MOVF   03,W
0170A:  BNZ   1718
0170C:  MOVLW  09
0170E:  SUBWF  00,W
01710:  MOVLB  0
01712:  BTFSC  FD8.2
01714:  BRA    1B6C
01716:  MOVLB  8
01718:  MOVF   03,W
0171A:  BNZ   1728
0171C:  MOVLW  0A
0171E:  SUBWF  00,W
01720:  MOVLB  0
01722:  BTFSC  FD8.2
01724:  BRA    1B7A
01726:  MOVLB  8
01728:  MOVF   03,W
0172A:  BNZ   1738
0172C:  MOVLW  0B
0172E:  SUBWF  00,W
01730:  MOVLB  0
01732:  BTFSC  FD8.2
01734:  BRA    1BA4
01736:  MOVLB  8
01738:  MOVF   03,W
0173A:  BNZ   1748
0173C:  MOVLW  0C
0173E:  SUBWF  00,W
01740:  MOVLB  0
01742:  BTFSC  FD8.2
01744:  BRA    1BB2
01746:  MOVLB  8
01748:  MOVF   03,W
0174A:  BNZ   1758
0174C:  MOVLW  0D
0174E:  SUBWF  00,W
01750:  MOVLB  0
01752:  BTFSC  FD8.2
01754:  BRA    1BC0
01756:  MOVLB  8
01758:  MOVF   03,W
0175A:  BNZ   1768
0175C:  MOVLW  0E
0175E:  SUBWF  00,W
01760:  MOVLB  0
01762:  BTFSC  FD8.2
01764:  BRA    1BCE
01766:  MOVLB  8
01768:  MOVF   03,W
0176A:  BNZ   1778
0176C:  MOVLW  0F
0176E:  SUBWF  00,W
01770:  MOVLB  0
01772:  BTFSC  FD8.2
01774:  BRA    1BDC
01776:  MOVLB  8
01778:  MOVF   03,W
0177A:  BNZ   1788
0177C:  MOVLW  10
0177E:  SUBWF  00,W
01780:  MOVLB  0
01782:  BTFSC  FD8.2
01784:  BRA    1BEA
01786:  MOVLB  8
01788:  MOVF   03,W
0178A:  BNZ   1798
0178C:  MOVLW  11
0178E:  SUBWF  00,W
01790:  MOVLB  0
01792:  BTFSC  FD8.2
01794:  BRA    1C14
01796:  MOVLB  8
01798:  MOVF   03,W
0179A:  BNZ   17A8
0179C:  MOVLW  12
0179E:  SUBWF  00,W
017A0:  MOVLB  0
017A2:  BTFSC  FD8.2
017A4:  BRA    1C22
017A6:  MOVLB  8
017A8:  MOVF   03,W
017AA:  BNZ   17B8
017AC:  MOVLW  13
017AE:  SUBWF  00,W
017B0:  MOVLB  0
017B2:  BTFSC  FD8.2
017B4:  BRA    1C50
017B6:  MOVLB  8
017B8:  MOVF   03,W
017BA:  BNZ   17C8
017BC:  MOVLW  14
017BE:  SUBWF  00,W
017C0:  MOVLB  0
017C2:  BTFSC  FD8.2
017C4:  BRA    1C68
017C6:  MOVLB  8
017C8:  MOVF   03,W
017CA:  BNZ   17D8
017CC:  MOVLW  15
017CE:  SUBWF  00,W
017D0:  MOVLB  0
017D2:  BTFSC  FD8.2
017D4:  BRA    1C76
017D6:  MOVLB  8
017D8:  MOVF   03,W
017DA:  BNZ   17E8
017DC:  MOVLW  16
017DE:  SUBWF  00,W
017E0:  MOVLB  0
017E2:  BTFSC  FD8.2
017E4:  BRA    1CA4
017E6:  MOVLB  8
017E8:  MOVF   03,W
017EA:  BNZ   17F8
017EC:  MOVLW  17
017EE:  SUBWF  00,W
017F0:  MOVLB  0
017F2:  BTFSC  FD8.2
017F4:  BRA    1CBE
017F6:  MOVLB  8
017F8:  MOVF   03,W
017FA:  BNZ   1808
017FC:  MOVLW  18
017FE:  SUBWF  00,W
01800:  MOVLB  0
01802:  BTFSC  FD8.2
01804:  BRA    1CCC
01806:  MOVLB  8
01808:  MOVF   03,W
0180A:  BNZ   1818
0180C:  MOVLW  19
0180E:  SUBWF  00,W
01810:  MOVLB  0
01812:  BTFSC  FD8.2
01814:  BRA    1CFA
01816:  MOVLB  8
01818:  MOVF   03,W
0181A:  BNZ   1828
0181C:  MOVLW  1A
0181E:  SUBWF  00,W
01820:  MOVLB  0
01822:  BTFSC  FD8.2
01824:  BRA    1D14
01826:  MOVLB  8
01828:  MOVF   03,W
0182A:  BNZ   1838
0182C:  MOVLW  1B
0182E:  SUBWF  00,W
01830:  MOVLB  0
01832:  BTFSC  FD8.2
01834:  BRA    1D22
01836:  MOVLB  8
01838:  MOVF   03,W
0183A:  BNZ   1848
0183C:  MOVLW  1C
0183E:  SUBWF  00,W
01840:  MOVLB  0
01842:  BTFSC  FD8.2
01844:  BRA    1D50
01846:  MOVLB  8
01848:  MOVF   03,W
0184A:  BNZ   1858
0184C:  MOVLW  1D
0184E:  SUBWF  00,W
01850:  MOVLB  0
01852:  BTFSC  FD8.2
01854:  BRA    1D6A
01856:  MOVLB  8
01858:  MOVF   03,W
0185A:  BNZ   1868
0185C:  MOVLW  1E
0185E:  SUBWF  00,W
01860:  MOVLB  0
01862:  BTFSC  FD8.2
01864:  BRA    1D78
01866:  MOVLB  8
01868:  MOVF   03,W
0186A:  BNZ   1878
0186C:  MOVLW  1F
0186E:  SUBWF  00,W
01870:  MOVLB  0
01872:  BTFSC  FD8.2
01874:  BRA    1DA6
01876:  MOVLB  8
01878:  MOVF   03,W
0187A:  BNZ   1888
0187C:  MOVLW  20
0187E:  SUBWF  00,W
01880:  MOVLB  0
01882:  BTFSC  FD8.2
01884:  BRA    1DC0
01886:  MOVLB  8
01888:  MOVF   03,W
0188A:  BNZ   1898
0188C:  MOVLW  21
0188E:  SUBWF  00,W
01890:  MOVLB  0
01892:  BTFSC  FD8.2
01894:  BRA    1DCE
01896:  MOVLB  8
01898:  MOVF   03,W
0189A:  BNZ   18A8
0189C:  MOVLW  22
0189E:  SUBWF  00,W
018A0:  MOVLB  0
018A2:  BTFSC  FD8.2
018A4:  BRA    1DFC
018A6:  MOVLB  8
018A8:  MOVF   03,W
018AA:  BNZ   18B8
018AC:  MOVLW  23
018AE:  SUBWF  00,W
018B0:  MOVLB  0
018B2:  BTFSC  FD8.2
018B4:  BRA    1E16
018B6:  MOVLB  8
018B8:  MOVF   03,W
018BA:  BNZ   18C8
018BC:  MOVLW  24
018BE:  SUBWF  00,W
018C0:  MOVLB  0
018C2:  BTFSC  FD8.2
018C4:  BRA    1E24
018C6:  MOVLB  8
018C8:  MOVF   03,W
018CA:  BNZ   18D8
018CC:  MOVLW  25
018CE:  SUBWF  00,W
018D0:  MOVLB  0
018D2:  BTFSC  FD8.2
018D4:  BRA    1E52
018D6:  MOVLB  8
018D8:  MOVF   03,W
018DA:  BNZ   18E8
018DC:  MOVLW  26
018DE:  SUBWF  00,W
018E0:  MOVLB  0
018E2:  BTFSC  FD8.2
018E4:  BRA    1E6C
018E6:  MOVLB  8
018E8:  MOVF   03,W
018EA:  BNZ   18F8
018EC:  MOVLW  27
018EE:  SUBWF  00,W
018F0:  MOVLB  0
018F2:  BTFSC  FD8.2
018F4:  BRA    1E7A
018F6:  MOVLB  8
018F8:  MOVF   03,W
018FA:  BNZ   1908
018FC:  MOVLW  28
018FE:  SUBWF  00,W
01900:  MOVLB  0
01902:  BTFSC  FD8.2
01904:  BRA    1EA8
01906:  MOVLB  8
01908:  MOVF   03,W
0190A:  BNZ   1918
0190C:  MOVLW  29
0190E:  SUBWF  00,W
01910:  MOVLB  0
01912:  BTFSC  FD8.2
01914:  BRA    1EC2
01916:  MOVLB  8
01918:  MOVF   03,W
0191A:  BNZ   1928
0191C:  MOVLW  2A
0191E:  SUBWF  00,W
01920:  MOVLB  0
01922:  BTFSC  FD8.2
01924:  BRA    1ED0
01926:  MOVLB  8
01928:  MOVF   03,W
0192A:  BNZ   1938
0192C:  MOVLW  2B
0192E:  SUBWF  00,W
01930:  MOVLB  0
01932:  BTFSC  FD8.2
01934:  BRA    1EEA
01936:  MOVLB  8
01938:  MOVF   03,W
0193A:  BNZ   1948
0193C:  MOVLW  2C
0193E:  SUBWF  00,W
01940:  MOVLB  0
01942:  BTFSC  FD8.2
01944:  BRA    1EFA
01946:  MOVLB  8
01948:  MOVF   03,W
0194A:  BNZ   1958
0194C:  MOVLW  2D
0194E:  SUBWF  00,W
01950:  MOVLB  0
01952:  BTFSC  FD8.2
01954:  BRA    1F0A
01956:  MOVLB  8
01958:  MOVF   03,W
0195A:  BNZ   1968
0195C:  MOVLW  2E
0195E:  SUBWF  00,W
01960:  MOVLB  0
01962:  BTFSC  FD8.2
01964:  BRA    1F1A
01966:  MOVLB  8
01968:  MOVF   03,W
0196A:  BNZ   1978
0196C:  MOVLW  2F
0196E:  SUBWF  00,W
01970:  MOVLB  0
01972:  BTFSC  FD8.2
01974:  BRA    1F2A
01976:  MOVLB  8
01978:  MOVF   03,W
0197A:  BNZ   1988
0197C:  MOVLW  30
0197E:  SUBWF  00,W
01980:  MOVLB  0
01982:  BTFSC  FD8.2
01984:  BRA    1F3A
01986:  MOVLB  8
01988:  MOVF   03,W
0198A:  BNZ   1998
0198C:  MOVLW  31
0198E:  SUBWF  00,W
01990:  MOVLB  0
01992:  BTFSC  FD8.2
01994:  BRA    1F4A
01996:  MOVLB  8
01998:  MOVF   03,W
0199A:  BNZ   19A8
0199C:  MOVLW  32
0199E:  SUBWF  00,W
019A0:  MOVLB  0
019A2:  BTFSC  FD8.2
019A4:  BRA    1F5A
019A6:  MOVLB  8
019A8:  MOVF   03,W
019AA:  BNZ   19B8
019AC:  MOVLW  33
019AE:  SUBWF  00,W
019B0:  MOVLB  0
019B2:  BTFSC  FD8.2
019B4:  BRA    1F6A
019B6:  MOVLB  8
019B8:  MOVF   03,W
019BA:  BNZ   19C8
019BC:  MOVLW  34
019BE:  SUBWF  00,W
019C0:  MOVLB  0
019C2:  BTFSC  FD8.2
019C4:  BRA    1F7A
019C6:  MOVLB  8
019C8:  MOVF   03,W
019CA:  BNZ   19D8
019CC:  MOVLW  35
019CE:  SUBWF  00,W
019D0:  MOVLB  0
019D2:  BTFSC  FD8.2
019D4:  BRA    1F8A
019D6:  MOVLB  8
019D8:  MOVLW  03
019DA:  SUBWF  03,W
019DC:  BNZ   19EA
019DE:  MOVLW  E8
019E0:  SUBWF  00,W
019E2:  MOVLB  0
019E4:  BTFSC  FD8.2
019E6:  BRA    1F9A
019E8:  MOVLB  8
019EA:  MOVLW  03
019EC:  SUBWF  03,W
019EE:  BNZ   19FC
019F0:  MOVLW  E9
019F2:  SUBWF  00,W
019F4:  MOVLB  0
019F6:  BTFSC  FD8.2
019F8:  BRA    1FAA
019FA:  MOVLB  8
019FC:  MOVLW  03
019FE:  SUBWF  03,W
01A00:  BNZ   1A0E
01A02:  MOVLW  EA
01A04:  SUBWF  00,W
01A06:  MOVLB  0
01A08:  BTFSC  FD8.2
01A0A:  BRA    1FB8
01A0C:  MOVLB  8
01A0E:  MOVLW  03
01A10:  SUBWF  03,W
01A12:  BNZ   1A20
01A14:  MOVLW  EB
01A16:  SUBWF  00,W
01A18:  MOVLB  0
01A1A:  BTFSC  FD8.2
01A1C:  BRA    1FC6
01A1E:  MOVLB  8
01A20:  MOVLW  03
01A22:  SUBWF  03,W
01A24:  BNZ   1A32
01A26:  MOVLW  EC
01A28:  SUBWF  00,W
01A2A:  MOVLB  0
01A2C:  BTFSC  FD8.2
01A2E:  BRA    1FD4
01A30:  MOVLB  8
01A32:  MOVLW  03
01A34:  SUBWF  03,W
01A36:  BNZ   1A44
01A38:  MOVLW  ED
01A3A:  SUBWF  00,W
01A3C:  MOVLB  0
01A3E:  BTFSC  FD8.2
01A40:  BRA    1FE2
01A42:  MOVLB  8
01A44:  MOVLW  03
01A46:  SUBWF  03,W
01A48:  BNZ   1A56
01A4A:  MOVLW  EE
01A4C:  SUBWF  00,W
01A4E:  MOVLB  0
01A50:  BTFSC  FD8.2
01A52:  BRA    1FF0
01A54:  MOVLB  8
01A56:  MOVLW  03
01A58:  SUBWF  03,W
01A5A:  BNZ   1A68
01A5C:  MOVLW  EF
01A5E:  SUBWF  00,W
01A60:  MOVLB  0
01A62:  BTFSC  FD8.2
01A64:  BRA    2000
01A66:  MOVLB  8
01A68:  MOVLW  03
01A6A:  SUBWF  03,W
01A6C:  BNZ   1A7A
01A6E:  MOVLW  F0
01A70:  SUBWF  00,W
01A72:  MOVLB  0
01A74:  BTFSC  FD8.2
01A76:  BRA    200E
01A78:  MOVLB  8
01A7A:  MOVLW  03
01A7C:  SUBWF  03,W
01A7E:  BNZ   1A8C
01A80:  MOVLW  F1
01A82:  SUBWF  00,W
01A84:  MOVLB  0
01A86:  BTFSC  FD8.2
01A88:  BRA    201E
01A8A:  MOVLB  8
01A8C:  MOVLW  03
01A8E:  SUBWF  03,W
01A90:  BNZ   1A9E
01A92:  MOVLW  F2
01A94:  SUBWF  00,W
01A96:  MOVLB  0
01A98:  BTFSC  FD8.2
01A9A:  BRA    202C
01A9C:  MOVLB  8
01A9E:  MOVLW  03
01AA0:  SUBWF  03,W
01AA2:  BNZ   1AB0
01AA4:  MOVLW  F3
01AA6:  SUBWF  00,W
01AA8:  MOVLB  0
01AAA:  BTFSC  FD8.2
01AAC:  BRA    203A
01AAE:  MOVLB  8
01AB0:  MOVLW  03
01AB2:  SUBWF  03,W
01AB4:  BNZ   1AC2
01AB6:  MOVLW  F4
01AB8:  SUBWF  00,W
01ABA:  MOVLB  0
01ABC:  BTFSC  FD8.2
01ABE:  BRA    204A
01AC0:  MOVLB  8
01AC2:  MOVLW  03
01AC4:  SUBWF  03,W
01AC6:  BNZ   1AD4
01AC8:  MOVLW  F5
01ACA:  SUBWF  00,W
01ACC:  MOVLB  0
01ACE:  BTFSC  FD8.2
01AD0:  BRA    205A
01AD2:  MOVLB  8
01AD4:  BRA    20DA
.................... 		/* counters */ 
.................... 		case 0:  return (int16) current.pulse_count[0]; 
01AD6:  MOVFF  A9,01
01ADA:  MOVFF  AA,02
01ADE:  MOVLB  8
01AE0:  BRA    20E2
01AE2:  MOVLB  0
.................... 		case 1:  return (int16) current.pulse_period[0]; 
01AE4:  MOVF   x97,W
01AE6:  MOVWF  01
01AE8:  MOVF   x98,W
01AEA:  MOVWF  02
01AEC:  MOVLB  8
01AEE:  BRA    20E2
01AF0:  MOVLB  0
.................... 		case 2:  return (int16) current.pulse_min_period[0]; 
01AF2:  MOVF   x9D,W
01AF4:  MOVWF  01
01AF6:  MOVF   x9E,W
01AF8:  MOVWF  02
01AFA:  MOVLB  8
01AFC:  BRA    20E2
01AFE:  MOVLB  0
.................... 		case 3:  return (int16) current.pulse_max_period[0]; 
01B00:  MOVF   xA3,W
01B02:  MOVWF  01
01B04:  MOVF   xA4,W
01B06:  MOVWF  02
01B08:  MOVLB  8
01B0A:  BRA    20E2
01B0C:  MOVLB  0
.................... 		case 4:  ps.word=get_pulse_sum(0); return (int16) ps.l[0]; 
01B0E:  MOVLB  8
01B10:  CLRF   xF1
01B12:  MOVLB  0
01B14:  RCALL  1376
01B16:  MOVFF  03,8CD
01B1A:  MOVFF  02,8CC
01B1E:  MOVFF  01,8CB
01B22:  MOVFF  00,8CA
01B26:  MOVLB  8
01B28:  MOVF   xCA,W
01B2A:  MOVWF  01
01B2C:  MOVF   xCB,W
01B2E:  MOVWF  02
01B30:  BRA    20E2
01B32:  MOVLB  0
.................... 		case 5:  return (int16) ps.l[1]; 
01B34:  MOVLB  8
01B36:  MOVF   xCC,W
01B38:  MOVWF  01
01B3A:  MOVF   xCD,W
01B3C:  MOVWF  02
01B3E:  BRA    20E2
01B40:  MOVLB  0
....................  
.................... 		case 6:  return (int16) current.pulse_count[1]; 
01B42:  MOVF   xAB,W
01B44:  MOVWF  01
01B46:  MOVF   xAC,W
01B48:  MOVWF  02
01B4A:  MOVLB  8
01B4C:  BRA    20E2
01B4E:  MOVLB  0
.................... 		case 7:  return (int16) current.pulse_period[1]; 
01B50:  MOVF   x99,W
01B52:  MOVWF  01
01B54:  MOVF   x9A,W
01B56:  MOVWF  02
01B58:  MOVLB  8
01B5A:  BRA    20E2
01B5C:  MOVLB  0
.................... 		case 8:  return (int16) current.pulse_min_period[1]; 
01B5E:  MOVF   x9F,W
01B60:  MOVWF  01
01B62:  MOVF   xA0,W
01B64:  MOVWF  02
01B66:  MOVLB  8
01B68:  BRA    20E2
01B6A:  MOVLB  0
.................... 		case 9:  return (int16) current.pulse_max_period[1]; 
01B6C:  MOVF   xA5,W
01B6E:  MOVWF  01
01B70:  MOVF   xA6,W
01B72:  MOVWF  02
01B74:  MOVLB  8
01B76:  BRA    20E2
01B78:  MOVLB  0
.................... 		case 10: ps.word=get_pulse_sum(1); return (int16) ps.l[0]; 
01B7A:  MOVLW  01
01B7C:  MOVLB  8
01B7E:  MOVWF  xF1
01B80:  MOVLB  0
01B82:  CALL   1376
01B86:  MOVFF  03,8CD
01B8A:  MOVFF  02,8CC
01B8E:  MOVFF  01,8CB
01B92:  MOVFF  00,8CA
01B96:  MOVLB  8
01B98:  MOVF   xCA,W
01B9A:  MOVWF  01
01B9C:  MOVF   xCB,W
01B9E:  MOVWF  02
01BA0:  BRA    20E2
01BA2:  MOVLB  0
.................... 		case 11: return (int16) ps.l[1]; 
01BA4:  MOVLB  8
01BA6:  MOVF   xCC,W
01BA8:  MOVWF  01
01BAA:  MOVF   xCD,W
01BAC:  MOVWF  02
01BAE:  BRA    20E2
01BB0:  MOVLB  0
....................  
....................  
.................... 		case 12: return (int16) current.pulse_count[2]; 
01BB2:  MOVF   xAD,W
01BB4:  MOVWF  01
01BB6:  MOVF   xAE,W
01BB8:  MOVWF  02
01BBA:  MOVLB  8
01BBC:  BRA    20E2
01BBE:  MOVLB  0
.................... 		case 13: return (int16) current.pulse_period[2]; 
01BC0:  MOVF   x9B,W
01BC2:  MOVWF  01
01BC4:  MOVF   x9C,W
01BC6:  MOVWF  02
01BC8:  MOVLB  8
01BCA:  BRA    20E2
01BCC:  MOVLB  0
.................... 		case 14: return (int16) current.pulse_min_period[2]; 
01BCE:  MOVF   xA1,W
01BD0:  MOVWF  01
01BD2:  MOVF   xA2,W
01BD4:  MOVWF  02
01BD6:  MOVLB  8
01BD8:  BRA    20E2
01BDA:  MOVLB  0
.................... 		case 15: return (int16) current.pulse_max_period[2]; 
01BDC:  MOVF   xA7,W
01BDE:  MOVWF  01
01BE0:  MOVF   xA8,W
01BE2:  MOVWF  02
01BE4:  MOVLB  8
01BE6:  BRA    20E2
01BE8:  MOVLB  0
.................... 		case 16: ps.word=get_pulse_sum(2); return (int16) ps.l[0]; 
01BEA:  MOVLW  02
01BEC:  MOVLB  8
01BEE:  MOVWF  xF1
01BF0:  MOVLB  0
01BF2:  CALL   1376
01BF6:  MOVFF  03,8CD
01BFA:  MOVFF  02,8CC
01BFE:  MOVFF  01,8CB
01C02:  MOVFF  00,8CA
01C06:  MOVLB  8
01C08:  MOVF   xCA,W
01C0A:  MOVWF  01
01C0C:  MOVF   xCB,W
01C0E:  MOVWF  02
01C10:  BRA    20E2
01C12:  MOVLB  0
.................... 		case 17: return (int16) ps.l[1]; 
01C14:  MOVLB  8
01C16:  MOVF   xCC,W
01C18:  MOVWF  01
01C1A:  MOVF   xCD,W
01C1C:  MOVWF  02
01C1E:  BRA    20E2
01C20:  MOVLB  0
....................  
....................  
.................... 		/* analog channels */ 
.................... 		/* input voltage */ 
.................... 		case 18: return (int16) current.adc_buffer[0][current.adc_buffer_index]; 
01C22:  CLRF   03
01C24:  MOVLB  1
01C26:  MOVF   xCB,W
01C28:  MOVWF  02
01C2A:  BCF    FD8.0
01C2C:  RLCF   02,F
01C2E:  RLCF   03,F
01C30:  MOVF   02,W
01C32:  ADDLW  CB
01C34:  MOVWF  FE9
01C36:  MOVLW  00
01C38:  ADDWFC 03,W
01C3A:  MOVWF  FEA
01C3C:  MOVFF  FEC,03
01C40:  MOVF   FED,F
01C42:  MOVF   FEF,W
01C44:  MOVWF  01
01C46:  MOVF   03,W
01C48:  MOVWF  02
01C4A:  MOVLB  8
01C4C:  BRA    20E2
01C4E:  MOVLB  0
.................... 		case 19: return (int16) adc_get(0); 
01C50:  MOVLB  8
01C52:  CLRF   xF1
01C54:  MOVLB  0
01C56:  CALL   13D8
01C5A:  MOVF   01,W
01C5C:  MOVWF  01
01C5E:  MOVF   02,W
01C60:  MOVWF  02
01C62:  MOVLB  8
01C64:  BRA    20E2
01C66:  MOVLB  0
.................... 		case 20: return (int16) current.adc_std_dev[0]; 
01C68:  MOVF   xBB,W
01C6A:  MOVWF  01
01C6C:  MOVF   xBC,W
01C6E:  MOVWF  02
01C70:  MOVLB  8
01C72:  BRA    20E2
01C74:  MOVLB  0
.................... 		/* wind dir 0 */ 
.................... 		case 21: return (int16) current.adc_buffer[1][current.adc_buffer_index]; 
01C76:  CLRF   03
01C78:  MOVLB  1
01C7A:  MOVF   xCB,W
01C7C:  MOVWF  02
01C7E:  BCF    FD8.0
01C80:  RLCF   02,F
01C82:  RLCF   03,F
01C84:  MOVF   02,W
01C86:  ADDLW  EB
01C88:  MOVWF  FE9
01C8A:  MOVLW  00
01C8C:  ADDWFC 03,W
01C8E:  MOVWF  FEA
01C90:  MOVFF  FEC,03
01C94:  MOVF   FED,F
01C96:  MOVF   FEF,W
01C98:  MOVWF  01
01C9A:  MOVF   03,W
01C9C:  MOVWF  02
01C9E:  MOVLB  8
01CA0:  BRA    20E2
01CA2:  MOVLB  0
.................... 		case 22: return (int16) adc_get(1); 
01CA4:  MOVLW  01
01CA6:  MOVLB  8
01CA8:  MOVWF  xF1
01CAA:  MOVLB  0
01CAC:  CALL   13D8
01CB0:  MOVF   01,W
01CB2:  MOVWF  01
01CB4:  MOVF   02,W
01CB6:  MOVWF  02
01CB8:  MOVLB  8
01CBA:  BRA    20E2
01CBC:  MOVLB  0
.................... 		case 23: return (int16) current.adc_std_dev[1]; 
01CBE:  MOVF   xBD,W
01CC0:  MOVWF  01
01CC2:  MOVF   xBE,W
01CC4:  MOVWF  02
01CC6:  MOVLB  8
01CC8:  BRA    20E2
01CCA:  MOVLB  0
.................... 		/* wind dir 1 */ 
.................... 		case 24: return (int16) current.adc_buffer[2][current.adc_buffer_index]; 
01CCC:  CLRF   03
01CCE:  MOVLB  1
01CD0:  MOVF   xCB,W
01CD2:  MOVWF  02
01CD4:  BCF    FD8.0
01CD6:  RLCF   02,F
01CD8:  RLCF   03,F
01CDA:  MOVF   02,W
01CDC:  ADDLW  0B
01CDE:  MOVWF  FE9
01CE0:  MOVLW  01
01CE2:  ADDWFC 03,W
01CE4:  MOVWF  FEA
01CE6:  MOVFF  FEC,03
01CEA:  MOVF   FED,F
01CEC:  MOVF   FEF,W
01CEE:  MOVWF  01
01CF0:  MOVF   03,W
01CF2:  MOVWF  02
01CF4:  MOVLB  8
01CF6:  BRA    20E2
01CF8:  MOVLB  0
.................... 		case 25: return (int16) adc_get(2); 
01CFA:  MOVLW  02
01CFC:  MOVLB  8
01CFE:  MOVWF  xF1
01D00:  MOVLB  0
01D02:  CALL   13D8
01D06:  MOVF   01,W
01D08:  MOVWF  01
01D0A:  MOVF   02,W
01D0C:  MOVWF  02
01D0E:  MOVLB  8
01D10:  BRA    20E2
01D12:  MOVLB  0
.................... 		case 26: return (int16) current.adc_std_dev[2]; 
01D14:  MOVF   xBF,W
01D16:  MOVWF  01
01D18:  MOVF   xC0,W
01D1A:  MOVWF  02
01D1C:  MOVLB  8
01D1E:  BRA    20E2
01D20:  MOVLB  0
.................... 		/* temperature */ 
.................... 		case 27: return (int16) current.adc_buffer[3][current.adc_buffer_index]; 
01D22:  CLRF   03
01D24:  MOVLB  1
01D26:  MOVF   xCB,W
01D28:  MOVWF  02
01D2A:  BCF    FD8.0
01D2C:  RLCF   02,F
01D2E:  RLCF   03,F
01D30:  MOVF   02,W
01D32:  ADDLW  2B
01D34:  MOVWF  FE9
01D36:  MOVLW  01
01D38:  ADDWFC 03,W
01D3A:  MOVWF  FEA
01D3C:  MOVFF  FEC,03
01D40:  MOVF   FED,F
01D42:  MOVF   FEF,W
01D44:  MOVWF  01
01D46:  MOVF   03,W
01D48:  MOVWF  02
01D4A:  MOVLB  8
01D4C:  BRA    20E2
01D4E:  MOVLB  0
.................... 		case 28: return (int16) adc_get(3); 
01D50:  MOVLW  03
01D52:  MOVLB  8
01D54:  MOVWF  xF1
01D56:  MOVLB  0
01D58:  CALL   13D8
01D5C:  MOVF   01,W
01D5E:  MOVWF  01
01D60:  MOVF   02,W
01D62:  MOVWF  02
01D64:  MOVLB  8
01D66:  BRA    20E2
01D68:  MOVLB  0
.................... 		case 29: return (int16) current.adc_std_dev[3]; 
01D6A:  MOVF   xC1,W
01D6C:  MOVWF  01
01D6E:  MOVF   xC2,W
01D70:  MOVWF  02
01D72:  MOVLB  8
01D74:  BRA    20E2
01D76:  MOVLB  0
.................... 		/* user ADC 0 to 3 */ 
.................... 		case 30: return (int16) current.adc_buffer[4][current.adc_buffer_index]; 
01D78:  CLRF   03
01D7A:  MOVLB  1
01D7C:  MOVF   xCB,W
01D7E:  MOVWF  02
01D80:  BCF    FD8.0
01D82:  RLCF   02,F
01D84:  RLCF   03,F
01D86:  MOVF   02,W
01D88:  ADDLW  4B
01D8A:  MOVWF  FE9
01D8C:  MOVLW  01
01D8E:  ADDWFC 03,W
01D90:  MOVWF  FEA
01D92:  MOVFF  FEC,03
01D96:  MOVF   FED,F
01D98:  MOVF   FEF,W
01D9A:  MOVWF  01
01D9C:  MOVF   03,W
01D9E:  MOVWF  02
01DA0:  MOVLB  8
01DA2:  BRA    20E2
01DA4:  MOVLB  0
.................... 		case 31: return (int16) adc_get(4); 
01DA6:  MOVLW  04
01DA8:  MOVLB  8
01DAA:  MOVWF  xF1
01DAC:  MOVLB  0
01DAE:  CALL   13D8
01DB2:  MOVF   01,W
01DB4:  MOVWF  01
01DB6:  MOVF   02,W
01DB8:  MOVWF  02
01DBA:  MOVLB  8
01DBC:  BRA    20E2
01DBE:  MOVLB  0
.................... 		case 32: return (int16) current.adc_std_dev[4]; 
01DC0:  MOVF   xC3,W
01DC2:  MOVWF  01
01DC4:  MOVF   xC4,W
01DC6:  MOVWF  02
01DC8:  MOVLB  8
01DCA:  BRA    20E2
01DCC:  MOVLB  0
....................  
.................... 		case 33: return (int16) current.adc_buffer[5][current.adc_buffer_index]; 
01DCE:  CLRF   03
01DD0:  MOVLB  1
01DD2:  MOVF   xCB,W
01DD4:  MOVWF  02
01DD6:  BCF    FD8.0
01DD8:  RLCF   02,F
01DDA:  RLCF   03,F
01DDC:  MOVF   02,W
01DDE:  ADDLW  6B
01DE0:  MOVWF  FE9
01DE2:  MOVLW  01
01DE4:  ADDWFC 03,W
01DE6:  MOVWF  FEA
01DE8:  MOVFF  FEC,03
01DEC:  MOVF   FED,F
01DEE:  MOVF   FEF,W
01DF0:  MOVWF  01
01DF2:  MOVF   03,W
01DF4:  MOVWF  02
01DF6:  MOVLB  8
01DF8:  BRA    20E2
01DFA:  MOVLB  0
.................... 		case 34: return (int16) adc_get(5); 
01DFC:  MOVLW  05
01DFE:  MOVLB  8
01E00:  MOVWF  xF1
01E02:  MOVLB  0
01E04:  CALL   13D8
01E08:  MOVF   01,W
01E0A:  MOVWF  01
01E0C:  MOVF   02,W
01E0E:  MOVWF  02
01E10:  MOVLB  8
01E12:  BRA    20E2
01E14:  MOVLB  0
.................... 		case 35: return (int16) current.adc_std_dev[5]; 
01E16:  MOVF   xC5,W
01E18:  MOVWF  01
01E1A:  MOVF   xC6,W
01E1C:  MOVWF  02
01E1E:  MOVLB  8
01E20:  BRA    20E2
01E22:  MOVLB  0
....................  
.................... 		case 36: return (int16) current.adc_buffer[6][current.adc_buffer_index]; 
01E24:  CLRF   03
01E26:  MOVLB  1
01E28:  MOVF   xCB,W
01E2A:  MOVWF  02
01E2C:  BCF    FD8.0
01E2E:  RLCF   02,F
01E30:  RLCF   03,F
01E32:  MOVF   02,W
01E34:  ADDLW  8B
01E36:  MOVWF  FE9
01E38:  MOVLW  01
01E3A:  ADDWFC 03,W
01E3C:  MOVWF  FEA
01E3E:  MOVFF  FEC,03
01E42:  MOVF   FED,F
01E44:  MOVF   FEF,W
01E46:  MOVWF  01
01E48:  MOVF   03,W
01E4A:  MOVWF  02
01E4C:  MOVLB  8
01E4E:  BRA    20E2
01E50:  MOVLB  0
.................... 		case 37: return (int16) adc_get(6); 
01E52:  MOVLW  06
01E54:  MOVLB  8
01E56:  MOVWF  xF1
01E58:  MOVLB  0
01E5A:  CALL   13D8
01E5E:  MOVF   01,W
01E60:  MOVWF  01
01E62:  MOVF   02,W
01E64:  MOVWF  02
01E66:  MOVLB  8
01E68:  BRA    20E2
01E6A:  MOVLB  0
.................... 		case 38: return (int16) current.adc_std_dev[6]; 
01E6C:  MOVF   xC7,W
01E6E:  MOVWF  01
01E70:  MOVF   xC8,W
01E72:  MOVWF  02
01E74:  MOVLB  8
01E76:  BRA    20E2
01E78:  MOVLB  0
....................  
.................... 		case 39: return (int16) current.adc_buffer[7][current.adc_buffer_index]; 
01E7A:  CLRF   03
01E7C:  MOVLB  1
01E7E:  MOVF   xCB,W
01E80:  MOVWF  02
01E82:  BCF    FD8.0
01E84:  RLCF   02,F
01E86:  RLCF   03,F
01E88:  MOVF   02,W
01E8A:  ADDLW  AB
01E8C:  MOVWF  FE9
01E8E:  MOVLW  01
01E90:  ADDWFC 03,W
01E92:  MOVWF  FEA
01E94:  MOVFF  FEC,03
01E98:  MOVF   FED,F
01E9A:  MOVF   FEF,W
01E9C:  MOVWF  01
01E9E:  MOVF   03,W
01EA0:  MOVWF  02
01EA2:  MOVLB  8
01EA4:  BRA    20E2
01EA6:  MOVLB  0
.................... 		case 40: return (int16) adc_get(7); 
01EA8:  MOVLW  07
01EAA:  MOVLB  8
01EAC:  MOVWF  xF1
01EAE:  MOVLB  0
01EB0:  CALL   13D8
01EB4:  MOVF   01,W
01EB6:  MOVWF  01
01EB8:  MOVF   02,W
01EBA:  MOVWF  02
01EBC:  MOVLB  8
01EBE:  BRA    20E2
01EC0:  MOVLB  0
.................... 		case 41: return (int16) current.adc_std_dev[7]; 
01EC2:  MOVF   xC9,W
01EC4:  MOVWF  01
01EC6:  MOVF   xCA,W
01EC8:  MOVWF  02
01ECA:  MOVLB  8
01ECC:  BRA    20E2
01ECE:  MOVLB  0
....................  
.................... 		/* status */ 
.................... 		case 42: return (int16) current.sequence_number++; 
01ED0:  MOVLB  1
01ED2:  MOVF   xD3,W
01ED4:  MOVWF  03
01ED6:  MOVF   xD2,W
01ED8:  INCF   xD2,F
01EDA:  BTFSC  FD8.2
01EDC:  INCF   xD3,F
01EDE:  MOVWF  01
01EE0:  MOVF   03,W
01EE2:  MOVWF  02
01EE4:  MOVLB  8
01EE6:  BRA    20E2
01EE8:  MOVLB  0
.................... 		case 43: return (int16) current.interval_milliseconds; /* milliseconds since last query */ 
01EEA:  MOVLB  1
01EEC:  MOVF   xD6,W
01EEE:  MOVWF  01
01EF0:  MOVF   xD7,W
01EF2:  MOVWF  02
01EF4:  MOVLB  8
01EF6:  BRA    20E2
01EF8:  MOVLB  0
.................... 		case 44: return (int16) current.uptime_minutes;  
01EFA:  MOVLB  1
01EFC:  MOVF   xD4,W
01EFE:  MOVWF  01
01F00:  MOVF   xD5,W
01F02:  MOVWF  02
01F04:  MOVLB  8
01F06:  BRA    20E2
01F08:  MOVLB  0
.................... 		case 45: return (int16) current.watchdog_seconds;  
01F0A:  MOVLB  1
01F0C:  MOVF   xD9,W
01F0E:  MOVWF  01
01F10:  MOVF   xDA,W
01F12:  MOVWF  02
01F14:  MOVLB  8
01F16:  BRA    20E2
01F18:  MOVLB  0
....................  
.................... 		/* triggers a new measurement */ 
.................... 		case 46: reset_counters(); return (int16) 0; 
01F1A:  GOTO   1462
01F1E:  MOVLW  00
01F20:  MOVWF  01
01F22:  MOVWF  02
01F24:  MOVLB  8
01F26:  BRA    20E2
01F28:  MOVLB  0
.................... 		/* triggers a reset of pulse sum */ 
.................... 		case 47: reset_pulse_sum(); return (int16) 0; 
01F2A:  GOTO   149E
01F2E:  MOVLW  00
01F30:  MOVWF  01
01F32:  MOVWF  02
01F34:  MOVLB  8
01F36:  BRA    20E2
01F38:  MOVLB  0
.................... 		/* modbus statistics */ 
.................... 		case 48: return (int16) current.modbus_our_packets; 
01F3A:  MOVLB  1
01F3C:  MOVF   xCC,W
01F3E:  MOVWF  01
01F40:  MOVF   xCD,W
01F42:  MOVWF  02
01F44:  MOVLB  8
01F46:  BRA    20E2
01F48:  MOVLB  0
.................... 		case 49: return (int16) current.modbus_other_packets; 
01F4A:  MOVLB  1
01F4C:  MOVF   xCE,W
01F4E:  MOVWF  01
01F50:  MOVF   xCF,W
01F52:  MOVWF  02
01F54:  MOVLB  8
01F56:  BRA    20E2
01F58:  MOVLB  0
.................... 		case 50: return (int16) current.modbus_last_error; 
01F5A:  MOVLB  1
01F5C:  MOVF   xD0,W
01F5E:  MOVWF  01
01F60:  MOVF   xD1,W
01F62:  MOVWF  02
01F64:  MOVLB  8
01F66:  BRA    20E2
01F68:  MOVLB  0
.................... 		/* triggers a modbus statistics reset */ 
.................... 		case 51: reset_modbus_stats(); return (int16) 0; 
01F6A:  GOTO   14C6
01F6E:  MOVLW  00
01F70:  MOVWF  01
01F72:  MOVWF  02
01F74:  MOVLB  8
01F76:  BRA    20E2
01F78:  MOVLB  0
.................... 		case 52: return (int16) current.rda_bytes_received; 
01F7A:  MOVLB  1
01F7C:  MOVF   xE2,W
01F7E:  MOVWF  01
01F80:  MOVF   xE3,W
01F82:  MOVWF  02
01F84:  MOVLB  8
01F86:  BRA    20E2
01F88:  MOVLB  0
.................... 		case 53: return (int16) current.rda2_bytes_received; 
01F8A:  MOVLB  1
01F8C:  MOVF   xE4,W
01F8E:  MOVWF  01
01F90:  MOVF   xE5,W
01F92:  MOVWF  02
01F94:  MOVLB  8
01F96:  BRA    20E2
01F98:  MOVLB  0
....................  
.................... 		/* configuration */ 
.................... 		case 1000: return (int16) config.serial_prefix; 
01F9A:  CLRF   03
01F9C:  MOVF   3A,W
01F9E:  MOVWF  01
01FA0:  MOVF   03,W
01FA2:  MOVWF  02
01FA4:  MOVLB  8
01FA6:  BRA    20E2
01FA8:  MOVLB  0
.................... 		case 1001: return (int16) config.serial_number; 
01FAA:  MOVF   3B,W
01FAC:  MOVWF  01
01FAE:  MOVF   3C,W
01FB0:  MOVWF  02
01FB2:  MOVLB  8
01FB4:  BRA    20E2
01FB6:  MOVLB  0
.................... 		case 1002: return (int16) 'P'; 
01FB8:  MOVLW  50
01FBA:  MOVWF  01
01FBC:  MOVLW  00
01FBE:  MOVWF  02
01FC0:  MOVLB  8
01FC2:  BRA    20E2
01FC4:  MOVLB  0
.................... 		case 1003: return (int16) 'W'; 
01FC6:  MOVLW  57
01FC8:  MOVWF  01
01FCA:  MOVLW  00
01FCC:  MOVWF  02
01FCE:  MOVLB  8
01FD0:  BRA    20E2
01FD2:  MOVLB  0
.................... 		case 1004: return (int16) 'X'; 
01FD4:  MOVLW  58
01FD6:  MOVWF  01
01FD8:  MOVLW  00
01FDA:  MOVWF  02
01FDC:  MOVLB  8
01FDE:  BRA    20E2
01FE0:  MOVLB  0
.................... 		case 1005: return (int16) 1; 
01FE2:  MOVLW  01
01FE4:  MOVWF  01
01FE6:  MOVLW  00
01FE8:  MOVWF  02
01FEA:  MOVLB  8
01FEC:  BRA    20E2
01FEE:  MOVLB  0
.................... 		case 1006: return (int16) config.modbus_address; 
01FF0:  CLRF   03
01FF2:  MOVF   36,W
01FF4:  MOVWF  01
01FF6:  MOVF   03,W
01FF8:  MOVWF  02
01FFA:  MOVLB  8
01FFC:  BRA    20E2
01FFE:  MOVLB  0
.................... 		case 1007: return (int16) config.adc_sample_ticks; 
02000:  MOVF   3D,W
02002:  MOVWF  01
02004:  MOVF   3E,W
02006:  MOVWF  02
02008:  MOVLB  8
0200A:  BRA    20E2
0200C:  MOVLB  0
.................... 		case 1008: return (int16) config.allow_bootload_request; 
0200E:  CLRF   03
02010:  MOVF   3F,W
02012:  MOVWF  01
02014:  MOVF   03,W
02016:  MOVWF  02
02018:  MOVLB  8
0201A:  BRA    20E2
0201C:  MOVLB  0
.................... 		case 1009: return (int16) config.watchdog_seconds_max; 
0201E:  MOVF   40,W
02020:  MOVWF  01
02022:  MOVF   41,W
02024:  MOVWF  02
02026:  MOVLB  8
02028:  BRA    20E2
0202A:  MOVLB  0
.................... 		case 1010: return (int16) config.pi_offtime_seconds; 
0202C:  MOVF   42,W
0202E:  MOVWF  01
02030:  MOVF   43,W
02032:  MOVWF  02
02034:  MOVLB  8
02036:  BRA    20E2
02038:  MOVLB  0
.................... 		case 1011: return (int16) config.power_startup; 
0203A:  CLRF   03
0203C:  MOVF   44,W
0203E:  MOVWF  01
02040:  MOVF   03,W
02042:  MOVWF  02
02044:  MOVLB  8
02046:  BRA    20E2
02048:  MOVLB  0
.................... 		case 1012: return (int16) config.rs485_port_mode; 
0204A:  CLRF   03
0204C:  MOVF   38,W
0204E:  MOVWF  01
02050:  MOVF   03,W
02052:  MOVWF  02
02054:  MOVLB  8
02056:  BRA    20E2
02058:  MOVLB  0
.................... 		case 1013:  
.................... 			if ( RS485_SPEED_1200 == config.rs485_port_speed )  return (int16) 1200; 
0205A:  MOVF   39,F
0205C:  BNZ   206C
0205E:  MOVLW  B0
02060:  MOVWF  01
02062:  MOVLW  04
02064:  MOVWF  02
02066:  MOVLB  8
02068:  BRA    20E2
0206A:  MOVLB  0
.................... 			if ( RS485_SPEED_2400 == config.rs485_port_speed )  return (int16) 2400; 
0206C:  DECFSZ 39,W
0206E:  BRA    207E
02070:  MOVLW  60
02072:  MOVWF  01
02074:  MOVLW  09
02076:  MOVWF  02
02078:  MOVLB  8
0207A:  BRA    20E2
0207C:  MOVLB  0
.................... 			if ( RS485_SPEED_4800 == config.rs485_port_speed )  return (int16) 4800; 
0207E:  MOVF   39,W
02080:  SUBLW  02
02082:  BNZ   2092
02084:  MOVLW  C0
02086:  MOVWF  01
02088:  MOVLW  12
0208A:  MOVWF  02
0208C:  MOVLB  8
0208E:  BRA    20E2
02090:  MOVLB  0
.................... 			if ( RS485_SPEED_19200 == config.rs485_port_speed ) return (int16) 19200; 
02092:  MOVF   39,W
02094:  SUBLW  04
02096:  BNZ   20A6
02098:  MOVLW  00
0209A:  MOVWF  01
0209C:  MOVLW  4B
0209E:  MOVWF  02
020A0:  MOVLB  8
020A2:  BRA    20E2
020A4:  MOVLB  0
.................... 			if ( RS485_SPEED_38400 == config.rs485_port_speed ) return (int16) 38400; 
020A6:  MOVF   39,W
020A8:  SUBLW  05
020AA:  BNZ   20BA
020AC:  MOVLW  00
020AE:  MOVWF  01
020B0:  MOVLW  96
020B2:  MOVWF  02
020B4:  MOVLB  8
020B6:  BRA    20E2
020B8:  MOVLB  0
.................... 			if ( RS485_SPEED_57600 == config.rs485_port_speed ) return (int16) 57600; 
020BA:  MOVF   39,W
020BC:  SUBLW  06
020BE:  BNZ   20CE
020C0:  MOVLW  00
020C2:  MOVWF  01
020C4:  MOVLW  E1
020C6:  MOVWF  02
020C8:  MOVLB  8
020CA:  BRA    20E2
020CC:  MOVLB  0
....................  
.................... 			return (int16) 9600; 
020CE:  MOVLW  80
020D0:  MOVWF  01
020D2:  MOVLW  25
020D4:  MOVWF  02
020D6:  MOVLB  8
020D8:  BRA    20E2
....................  
.................... 		/* we should have range checked, and never gotten here */ 
.................... 		default: return (int16) 65535; 
020DA:  MOVLW  FF
020DC:  MOVWF  01
020DE:  MOVWF  02
020E0:  BRA    20E2
.................... 	} 
....................  
.................... } 
020E2:  MOVLB  0
020E4:  GOTO   2136 (RETURN)
....................  
....................  
.................... int8 modbus_valid_read_registers(int16 start, int16 end) { 
.................... 	if ( 19999==start && 20000==end) 
*
011F6:  MOVLB  8
011F8:  MOVF   xE1,W
011FA:  SUBLW  1F
011FC:  BNZ   1216
011FE:  MOVF   xE2,W
01200:  SUBLW  4E
01202:  BNZ   1216
01204:  MOVF   xE3,W
01206:  SUBLW  20
01208:  BNZ   1216
0120A:  MOVF   xE4,W
0120C:  SUBLW  4E
0120E:  BNZ   1216
.................... 		return 1; 
01210:  MOVLW  01
01212:  MOVWF  01
01214:  BRA    12DE
....................  
....................  
.................... 	if ( start >= MIN_NMEA0183_WORD_REGISTER && end <= MAX_NMEA0183_WORD_REGISTER )  
01216:  MOVF   xE2,W
01218:  SUBLW  16
0121A:  BC    123A
0121C:  XORLW  FF
0121E:  BNZ   1226
01220:  MOVF   xE1,W
01222:  SUBLW  6F
01224:  BC    123A
01226:  MOVF   xE4,W
01228:  SUBLW  19
0122A:  BNC   123A
0122C:  BNZ   1234
0122E:  MOVF   xE3,W
01230:  SUBLW  50
01232:  BNC   123A
.................... 		return 1; 
01234:  MOVLW  01
01236:  MOVWF  01
01238:  BRA    12DE
....................  
.................... 	if ( start >= MIN_NMEA0183_BYTE_REGISTER && end <= MAX_NMEA0183_BYTE_REGISTER )  
0123A:  MOVF   xE2,W
0123C:  SUBLW  12
0123E:  BC    125E
01240:  XORLW  FF
01242:  BNZ   124A
01244:  MOVF   xE1,W
01246:  SUBLW  87
01248:  BC    125E
0124A:  MOVF   xE4,W
0124C:  SUBLW  17
0124E:  BNC   125E
01250:  BNZ   1258
01252:  MOVF   xE3,W
01254:  SUBLW  48
01256:  BNC   125E
.................... 		return 1; 
01258:  MOVLW  01
0125A:  MOVWF  01
0125C:  BRA    12DE
....................  
.................... 	if ( start >= MIN_NMEA0183_CONFIG_REGISTER && end <= MAX_NMEA0183_CONFIG_REGISTER ) 
0125E:  MOVF   xE2,W
01260:  SUBLW  03
01262:  BC    1282
01264:  XORLW  FF
01266:  BNZ   126E
01268:  MOVF   xE1,W
0126A:  SUBLW  4B
0126C:  BC    1282
0126E:  MOVF   xE4,W
01270:  SUBLW  04
01272:  BNC   1282
01274:  BNZ   127C
01276:  MOVF   xE3,W
01278:  SUBLW  94
0127A:  BNC   1282
.................... 		return 1; 
0127C:  MOVLW  01
0127E:  MOVWF  01
01280:  BRA    12DE
....................  
.................... 	if ( start >= MIN_CONFIG_REGISTER && end <= MAX_CONFIG_REGISTER+1 ) 
01282:  MOVF   xE2,W
01284:  SUBLW  02
01286:  BC    12A6
01288:  XORLW  FF
0128A:  BNZ   1292
0128C:  MOVF   xE1,W
0128E:  SUBLW  E7
01290:  BC    12A6
01292:  MOVF   xE4,W
01294:  SUBLW  03
01296:  BNC   12A6
01298:  BNZ   12A0
0129A:  MOVF   xE3,W
0129C:  SUBLW  F6
0129E:  BNC   12A6
.................... 		return 1; 
012A0:  MOVLW  01
012A2:  MOVWF  01
012A4:  BRA    12DE
....................  
.................... 	if ( start >= MIN_EE_REGISTER && end <= MAX_EE_REGISTER+1 ) 
012A6:  MOVF   xE2,W
012A8:  SUBLW  06
012AA:  BC    12CA
012AC:  XORLW  FF
012AE:  BNZ   12B6
012B0:  MOVF   xE1,W
012B2:  SUBLW  CF
012B4:  BC    12CA
012B6:  MOVF   xE4,W
012B8:  SUBLW  09
012BA:  BNC   12CA
012BC:  BNZ   12C4
012BE:  MOVF   xE3,W
012C0:  SUBLW  D1
012C2:  BNC   12CA
.................... 		return 1; 
012C4:  MOVLW  01
012C6:  MOVWF  01
012C8:  BRA    12DE
.................... 	 
....................  
.................... 	/* end is always start + at least one ... so no need to test for range starting at 0 */ 
.................... 	if ( end <= MAX_STATUS_REGISTER+1) 
012CA:  MOVF   xE4,F
012CC:  BNZ   12DA
012CE:  MOVF   xE3,W
012D0:  SUBLW  36
012D2:  BNC   12DA
.................... 		return 1; 
012D4:  MOVLW  01
012D6:  MOVWF  01
012D8:  BRA    12DE
....................  
.................... 	return 0; 
012DA:  MOVLW  00
012DC:  MOVWF  01
.................... } 
012DE:  MOVLB  0
012E0:  GOTO   2716 (RETURN)
....................  
.................... int8 modbus_valid_write_registers(int16 start, int16 end) { 
.................... 	if ( 19999==start && 20000==end) 
.................... 		return 1; 
....................  
.................... 	if ( start >= MIN_EE_REGISTER && end <= MAX_EE_REGISTER+1 ) 
.................... 		return 1; 
....................  
.................... 	if ( start >= MIN_NMEA0183_CONFIG_REGISTER && end <= MAX_NMEA0183_CONFIG_REGISTER+1 ) 
.................... 		return 1; 
....................  
.................... 	if ( start >= MIN_CONFIG_REGISTER && end <= MAX_CONFIG_REGISTER+1 ) 
.................... 		return 1; 
.................... 	 
.................... 	/* end is always start + at least one ... so no need to test for range starting at 0 */ 
.................... 	if ( end <= MAX_STATUS_REGISTER+1) 
.................... 		return 1; 
....................  
.................... 	return 0; 
.................... } 
....................  
.................... void modbus_read_register_response(function func, int8 address, int16 start_address, int16 register_count ) { 
.................... 	int16 i; 
.................... 	int16 l; 
....................  
.................... 	modbus_serial_send_start(address, func); // FUNC_READ_HOLDING_REGISTERS); 
*
020E8:  MOVFF  8E0,8E9
020EC:  MOVFF  8DF,8EA
020F0:  CALL   1316
.................... 	modbus_serial_putc(register_count*2); 
020F4:  BCF    FD8.0
020F6:  MOVLB  8
020F8:  RLCF   xE3,W
020FA:  MOVWF  xE9
020FC:  RLCF   xE4,W
020FE:  MOVWF  xEA
02100:  MOVFF  8E9,8EB
02104:  MOVLB  0
02106:  CALL   12E4
....................  
....................  
.................... 	for( i=0 ; i<register_count ; i++ ) { 
0210A:  MOVLB  8
0210C:  CLRF   xE6
0210E:  CLRF   xE5
02110:  MOVF   xE6,W
02112:  SUBWF  xE4,W
02114:  BNC   2160
02116:  BNZ   211E
02118:  MOVF   xE3,W
0211A:  SUBWF  xE5,W
0211C:  BC    2160
.................... 		l=map_modbus(start_address+i); 
0211E:  MOVF   xE5,W
02120:  ADDWF  xE1,W
02122:  MOVWF  xE9
02124:  MOVF   xE6,W
02126:  ADDWFC xE2,W
02128:  MOVWF  xEA
0212A:  MOVWF  xEC
0212C:  MOVFF  8E9,8EB
02130:  MOVLB  0
02132:  GOTO   14DA
02136:  MOVFF  02,8E8
0213A:  MOVFF  01,8E7
.................... 		modbus_serial_putc(make8(l,1)); 
0213E:  MOVFF  8E8,8E9
02142:  MOVFF  8E8,8EB
02146:  CALL   12E4
....................   		modbus_serial_putc(make8(l,0)); 
0214A:  MOVFF  8E7,8E9
0214E:  MOVFF  8E7,8EB
02152:  CALL   12E4
.................... 	} 
02156:  MOVLB  8
02158:  INCF   xE5,F
0215A:  BTFSC  FD8.2
0215C:  INCF   xE6,F
0215E:  BRA    2110
....................  
.................... 	modbus_serial_send_stop(); 
02160:  MOVLB  0
02162:  CALL   1334
.................... } 
02166:  GOTO   2758 (RETURN)
....................  
.................... /*  
.................... try to write the specified register 
.................... if successful, return 0, otherwise return a modbus exception 
.................... */ 
.................... exception modbus_write_register(int16 address, int16 value) { 
.................... 	int8 n,o; 
....................  
.................... 	if ( address >= MIN_EE_REGISTER && address < MAX_EE_REGISTER ) { 
0216A:  MOVLB  8
0216C:  MOVF   xE6,W
0216E:  SUBLW  06
02170:  BC    21E8
02172:  XORLW  FF
02174:  BNZ   217C
02176:  MOVF   xE5,W
02178:  SUBLW  CF
0217A:  BC    21E8
0217C:  MOVF   xE6,W
0217E:  SUBLW  09
02180:  BNC   21E8
02182:  BNZ   218A
02184:  MOVF   xE5,W
02186:  SUBLW  CF
02188:  BNC   21E8
.................... 		if ( value > 256 ) return ILLEGAL_DATA_VALUE; 
0218A:  MOVF   xE8,W
0218C:  SUBLW  00
0218E:  BC    21A0
02190:  XORLW  FF
02192:  BNZ   219A
02194:  MOVF   xE7,W
02196:  SUBLW  00
02198:  BC    21A0
0219A:  MOVLW  03
0219C:  MOVWF  01
0219E:  BRA    254C
.................... 		write_eeprom(address - MIN_EE_REGISTER + EE_FOR_HOST_ADDRESS,(int8) value); 
021A0:  MOVLW  D0
021A2:  SUBWF  xE5,W
021A4:  MOVWF  xEB
021A6:  MOVLW  07
021A8:  SUBWFB xE6,W
021AA:  MOVWF  xEC
021AC:  MOVLW  02
021AE:  ADDWF  xEC,F
021B0:  MOVFF  8EC,FAA
021B4:  MOVFF  8EB,FA9
021B8:  MOVFF  8E7,FA8
021BC:  BCF    FA6.6
021BE:  BCF    FA6.7
021C0:  BSF    FA6.2
021C2:  MOVF   FF2,W
021C4:  MOVWF  00
021C6:  BCF    FF2.6
021C8:  BCF    FF2.7
021CA:  MOVLB  F
021CC:  MOVLW  55
021CE:  MOVWF  FA7
021D0:  MOVLW  AA
021D2:  MOVWF  FA7
021D4:  BSF    FA6.1
021D6:  BTFSC  FA6.1
021D8:  BRA    21D6
021DA:  BCF    FA6.2
021DC:  MOVF   00,W
021DE:  IORWF  FF2,F
.................... 		return 0; 
021E0:  MOVLW  00
021E2:  MOVWF  01
021E4:  MOVLB  8
021E6:  BRA    254C
.................... 	} 
....................  
.................... 	if ( address >= MIN_NMEA0183_CONFIG_REGISTER && address < MAX_NMEA0183_CONFIG_REGISTER ) { 
021E8:  MOVF   xE6,W
021EA:  SUBLW  03
021EC:  BC    227E
021EE:  XORLW  FF
021F0:  BNZ   21F8
021F2:  MOVF   xE5,W
021F4:  SUBLW  4B
021F6:  BC    227E
021F8:  MOVF   xE6,W
021FA:  SUBLW  04
021FC:  BNC   227E
021FE:  BNZ   2206
02200:  MOVF   xE5,W
02202:  SUBLW  93
02204:  BNC   227E
.................... 		if ( value > 256 ) return ILLEGAL_DATA_VALUE; 
02206:  MOVF   xE8,W
02208:  SUBLW  00
0220A:  BC    221C
0220C:  XORLW  FF
0220E:  BNZ   2216
02210:  MOVF   xE7,W
02212:  SUBLW  00
02214:  BC    221C
02216:  MOVLW  03
02218:  MOVWF  01
0221A:  BRA    254C
....................  
.................... 		/* get rid of our base */ 
.................... 		n = (address-MIN_NMEA0183_CONFIG_REGISTER); 
0221C:  MOVLW  4C
0221E:  SUBWF  xE5,W
02220:  MOVWF  xE9
....................  
.................... 		/* configurable sentence parts are the first 6 characters */ 
.................... 		o = n % 6; /* offset into sentence */ 
02222:  MOVFF  8E9,8F1
02226:  MOVLW  06
02228:  MOVWF  xF2
0222A:  MOVLB  0
0222C:  CALL   0B48
02230:  MOVFF  00,8EA
.................... 		n = n / 6; /* number of sentence */ 
02234:  MOVFF  8E9,8F1
02238:  MOVLW  06
0223A:  MOVLB  8
0223C:  MOVWF  xF2
0223E:  MOVLB  0
02240:  CALL   0B48
02244:  MOVFF  01,8E9
....................  
.................... 		config.nmea0183_sentence[n][o]=(int8) value; 
02248:  MOVLB  8
0224A:  MOVF   xE9,W
0224C:  MULLW  06
0224E:  MOVF   FF3,W
02250:  CLRF   03
02252:  ADDLW  19
02254:  MOVWF  xEB
02256:  MOVLW  00
02258:  ADDWFC 03,W
0225A:  MOVWF  xEC
0225C:  CLRF   03
0225E:  MOVF   xEA,W
02260:  ADDWF  xEB,W
02262:  MOVWF  01
02264:  MOVF   xEC,W
02266:  ADDWFC 03,F
02268:  MOVF   01,W
0226A:  ADDLW  36
0226C:  MOVWF  FE9
0226E:  MOVLW  00
02270:  ADDWFC 03,W
02272:  MOVWF  FEA
02274:  MOVFF  8E7,FEF
.................... 		 
.................... 		return 0; 
02278:  MOVLW  00
0227A:  MOVWF  01
0227C:  BRA    254C
.................... 	} 
....................  
....................  
.................... 	/* if we have been unlocked, then we can modify serial number */ 
.................... 	if ( current.factory_unlocked ) { 
0227E:  MOVLB  1
02280:  MOVF   xD8,F
02282:  BZ    22BA
.................... 		if ( 1000 == address ) { 
02284:  MOVLB  8
02286:  MOVF   xE5,W
02288:  SUBLW  E8
0228A:  BNZ   229E
0228C:  MOVF   xE6,W
0228E:  SUBLW  03
02290:  BNZ   229E
.................... 			config.serial_prefix=value; 
02292:  MOVFF  8E7,3A
.................... 			return 0; 
02296:  MOVLW  00
02298:  MOVWF  01
0229A:  BRA    254C
.................... 		} else if ( 1001 == address ) { 
0229C:  BRA    22B8
0229E:  MOVF   xE5,W
022A0:  SUBLW  E9
022A2:  BNZ   22B8
022A4:  MOVF   xE6,W
022A6:  SUBLW  03
022A8:  BNZ   22B8
.................... 			config.serial_number=value; 
022AA:  MOVFF  8E8,3C
022AE:  MOVFF  8E7,3B
.................... 			return 0; 
022B2:  MOVLW  00
022B4:  MOVWF  01
022B6:  BRA    254C
022B8:  MOVLB  1
.................... 		} 
.................... 	} 
....................  
.................... 	/* publicly writeable addresses */ 
.................... 	switch ( address ) { 
022BA:  MOVLB  8
022BC:  MOVF   xE5,W
022BE:  MOVWF  00
022C0:  MOVF   xE6,W
022C2:  MOVWF  03
022C4:  MOVLW  03
022C6:  SUBWF  03,W
022C8:  BNZ   22D6
022CA:  MOVLW  EE
022CC:  SUBWF  00,W
022CE:  MOVLB  0
022D0:  BTFSC  FD8.2
022D2:  BRA    239E
022D4:  MOVLB  8
022D6:  MOVLW  03
022D8:  SUBWF  03,W
022DA:  BNZ   22E8
022DC:  MOVLW  EF
022DE:  SUBWF  00,W
022E0:  MOVLB  0
022E2:  BTFSC  FD8.2
022E4:  BRA    23B6
022E6:  MOVLB  8
022E8:  MOVLW  03
022EA:  SUBWF  03,W
022EC:  BNZ   22FA
022EE:  MOVLW  F0
022F0:  SUBWF  00,W
022F2:  MOVLB  0
022F4:  BTFSC  FD8.2
022F6:  BRA    23C6
022F8:  MOVLB  8
022FA:  MOVLW  03
022FC:  SUBWF  03,W
022FE:  BNZ   230C
02300:  MOVLW  F1
02302:  SUBWF  00,W
02304:  MOVLB  0
02306:  BTFSC  FD8.2
02308:  BRA    23DE
0230A:  MOVLB  8
0230C:  MOVLW  03
0230E:  SUBWF  03,W
02310:  BNZ   231E
02312:  MOVLW  F2
02314:  SUBWF  00,W
02316:  MOVLB  0
02318:  BTFSC  FD8.2
0231A:  BRA    23EA
0231C:  MOVLB  8
0231E:  MOVLW  03
02320:  SUBWF  03,W
02322:  BNZ   2330
02324:  MOVLW  F3
02326:  SUBWF  00,W
02328:  MOVLB  0
0232A:  BTFSC  FD8.2
0232C:  BRA    2404
0232E:  MOVLB  8
02330:  MOVLW  03
02332:  SUBWF  03,W
02334:  BNZ   2342
02336:  MOVLW  F4
02338:  SUBWF  00,W
0233A:  MOVLB  0
0233C:  BTFSC  FD8.2
0233E:  BRA    241C
02340:  MOVLB  8
02342:  MOVLW  03
02344:  SUBWF  03,W
02346:  BNZ   2354
02348:  MOVLW  F5
0234A:  SUBWF  00,W
0234C:  MOVLB  0
0234E:  BTFSC  FD8.2
02350:  BRA    2434
02352:  MOVLB  8
02354:  MOVLW  07
02356:  SUBWF  03,W
02358:  BNZ   2366
0235A:  MOVLW  CD
0235C:  SUBWF  00,W
0235E:  MOVLB  0
02360:  BTFSC  FD8.2
02362:  BRA    24D2
02364:  MOVLB  8
02366:  MOVLW  07
02368:  SUBWF  03,W
0236A:  BNZ   2378
0236C:  MOVLW  CE
0236E:  SUBWF  00,W
02370:  MOVLB  0
02372:  BTFSC  FD8.2
02374:  BRA    24E6
02376:  MOVLB  8
02378:  MOVLW  07
0237A:  SUBWF  03,W
0237C:  BNZ   238A
0237E:  MOVLW  CF
02380:  SUBWF  00,W
02382:  MOVLB  0
02384:  BTFSC  FD8.2
02386:  BRA    2500
02388:  MOVLB  8
0238A:  MOVLW  4E
0238C:  SUBWF  03,W
0238E:  BNZ   239C
02390:  MOVLW  1F
02392:  SUBWF  00,W
02394:  MOVLB  0
02396:  BTFSC  FD8.2
02398:  BRA    251A
0239A:  MOVLB  8
0239C:  BRA    2542
.................... 			 
....................  
.................... 		case 1006: 
.................... 			/* Modbus address {0 to 127 or 128 for respond to any} */ 
.................... 			if ( value > 128 ) return ILLEGAL_DATA_VALUE; 
0239E:  MOVLB  8
023A0:  MOVF   xE8,F
023A2:  BNZ   23AA
023A4:  MOVF   xE7,W
023A6:  SUBLW  80
023A8:  BC    23B0
023AA:  MOVLW  03
023AC:  MOVWF  01
023AE:  BRA    254C
.................... 			config.modbus_address=value; 
023B0:  MOVFF  8E7,36
.................... 			break; 
023B4:  BRA    2548
....................  
.................... 		case 1007: 
.................... 			/* ADC sample interval */ 
.................... 			timers.now_adc_reset_count=1; 
023B6:  MOVLB  1
023B8:  BSF    xFA.1
.................... 			config.adc_sample_ticks=value; 
023BA:  MOVFF  8E8,3E
023BE:  MOVFF  8E7,3D
.................... 			break; 
023C2:  MOVLB  8
023C4:  BRA    2548
....................  
.................... 		case 1008: 
.................... 			/* allow this processor to follow requests of the PIC BOOTLOAD REQUEST line to reset ourselves */ 
.................... 			if ( value > 1 ) return ILLEGAL_DATA_VALUE; 
023C6:  MOVLB  8
023C8:  MOVF   xE8,F
023CA:  BNZ   23D2
023CC:  MOVF   xE7,W
023CE:  SUBLW  01
023D0:  BC    23D8
023D2:  MOVLW  03
023D4:  MOVWF  01
023D6:  BRA    254C
.................... 			config.allow_bootload_request=value; 
023D8:  MOVFF  8E7,3F
.................... 			break; 
023DC:  BRA    2548
....................  
.................... 		case 1009: 
.................... 			config.watchdog_seconds_max=value; 
023DE:  MOVFF  8E8,41
023E2:  MOVFF  8E7,40
.................... 			break; 
023E6:  MOVLB  8
023E8:  BRA    2548
....................  
.................... 		case 1010: 
.................... 			if ( value < 1 ) return ILLEGAL_DATA_VALUE; 
023EA:  MOVLB  8
023EC:  MOVF   xE7,F
023EE:  BNZ   23FA
023F0:  MOVF   xE8,F
023F2:  BNZ   23FA
023F4:  MOVLW  03
023F6:  MOVWF  01
023F8:  BRA    254C
.................... 			config.pi_offtime_seconds=value; 
023FA:  MOVFF  8E8,43
023FE:  MOVFF  8E7,42
.................... 			break; 
02402:  BRA    2548
.................... 		 
.................... 		case 1011: 
.................... 			if ( value > 1 ) return ILLEGAL_DATA_VALUE; 
02404:  MOVLB  8
02406:  MOVF   xE8,F
02408:  BNZ   2410
0240A:  MOVF   xE7,W
0240C:  SUBLW  01
0240E:  BC    2416
02410:  MOVLW  03
02412:  MOVWF  01
02414:  BRA    254C
.................... 			config.power_startup=value; 
02416:  MOVFF  8E7,44
.................... 			break; 
0241A:  BRA    2548
.................... 		 
.................... 		case 1012: 
.................... 			if ( value > 2 ) return ILLEGAL_DATA_VALUE; 
0241C:  MOVLB  8
0241E:  MOVF   xE8,F
02420:  BNZ   2428
02422:  MOVF   xE7,W
02424:  SUBLW  02
02426:  BC    242E
02428:  MOVLW  03
0242A:  MOVWF  01
0242C:  BRA    254C
.................... 			config.rs485_port_mode=value; 
0242E:  MOVFF  8E7,38
.................... 			break; 
02432:  BRA    2548
.................... 		 
.................... 		case 1013: 
....................  
.................... 			n=0; 
02434:  MOVLB  8
02436:  CLRF   xE9
.................... 			if ( 1200 == value )  { n=1; config.rs485_port_speed=RS485_SPEED_1200; } 
02438:  MOVF   xE7,W
0243A:  SUBLW  B0
0243C:  BNZ   244A
0243E:  MOVF   xE8,W
02440:  SUBLW  04
02442:  BNZ   244A
02444:  MOVLW  01
02446:  MOVWF  xE9
02448:  CLRF   39
.................... 			if ( 2400 == value )  { n=1; config.rs485_port_speed=RS485_SPEED_2400; } 
0244A:  MOVF   xE7,W
0244C:  SUBLW  60
0244E:  BNZ   245C
02450:  MOVF   xE8,W
02452:  SUBLW  09
02454:  BNZ   245C
02456:  MOVLW  01
02458:  MOVWF  xE9
0245A:  MOVWF  39
.................... 			if ( 4800 == value )  { n=1; config.rs485_port_speed=RS485_SPEED_4800; } 
0245C:  MOVF   xE7,W
0245E:  SUBLW  C0
02460:  BNZ   2470
02462:  MOVF   xE8,W
02464:  SUBLW  12
02466:  BNZ   2470
02468:  MOVLW  01
0246A:  MOVWF  xE9
0246C:  MOVLW  02
0246E:  MOVWF  39
.................... 			if ( 9600 == value )  { n=1; config.rs485_port_speed=RS485_SPEED_9600; } 
02470:  MOVF   xE7,W
02472:  SUBLW  80
02474:  BNZ   2484
02476:  MOVF   xE8,W
02478:  SUBLW  25
0247A:  BNZ   2484
0247C:  MOVLW  01
0247E:  MOVWF  xE9
02480:  MOVLW  03
02482:  MOVWF  39
.................... 			if ( 19200 == value ) { n=1; config.rs485_port_speed=RS485_SPEED_19200; } 
02484:  MOVF   xE7,F
02486:  BNZ   2496
02488:  MOVF   xE8,W
0248A:  SUBLW  4B
0248C:  BNZ   2496
0248E:  MOVLW  01
02490:  MOVWF  xE9
02492:  MOVLW  04
02494:  MOVWF  39
.................... 			if ( 38400 == value ) { n=1; config.rs485_port_speed=RS485_SPEED_38400; } 
02496:  MOVF   xE7,F
02498:  BNZ   24A8
0249A:  MOVF   xE8,W
0249C:  SUBLW  96
0249E:  BNZ   24A8
024A0:  MOVLW  01
024A2:  MOVWF  xE9
024A4:  MOVLW  05
024A6:  MOVWF  39
.................... 			if ( 57600 == value ) { n=1; config.rs485_port_speed=RS485_SPEED_57600; } 
024A8:  MOVF   xE7,F
024AA:  BNZ   24BA
024AC:  MOVF   xE8,W
024AE:  SUBLW  E1
024B0:  BNZ   24BA
024B2:  MOVLW  01
024B4:  MOVWF  xE9
024B6:  MOVLW  06
024B8:  MOVWF  39
....................  
.................... 			if (  1==n ) { 
024BA:  DECFSZ xE9,W
024BC:  BRA    24C8
.................... 				set_rs485_speed(); 
024BE:  MOVLB  0
024C0:  CALL   0910
.................... 			}  else { 
024C4:  BRA    24CE
024C6:  MOVLB  8
.................... 				return ILLEGAL_DATA_VALUE; 
024C8:  MOVLW  03
024CA:  MOVWF  01
024CC:  BRA    254C
.................... 			} 
.................... 			break; 
024CE:  MOVLB  8
024D0:  BRA    2548
....................  
.................... 		case 1997: 
.................... 			/* reset CPU */ 
.................... 			if ( 1 != value ) return ILLEGAL_DATA_VALUE; 
024D2:  MOVLB  8
024D4:  DECFSZ xE7,W
024D6:  BRA    24DC
024D8:  MOVF   xE8,F
024DA:  BZ    24E2
024DC:  MOVLW  03
024DE:  MOVWF  01
024E0:  BRA    254C
.................... 			reset_cpu(); 
024E2:  RESET
024E4:  MOVLB  0
.................... 		case 1998: 
.................... 			/* write default config to EEPROM */ 
.................... 			if ( 1 != value ) return ILLEGAL_DATA_VALUE; 
024E6:  MOVLB  8
024E8:  DECFSZ xE7,W
024EA:  BRA    24F0
024EC:  MOVF   xE8,F
024EE:  BZ    24F6
024F0:  MOVLW  03
024F2:  MOVWF  01
024F4:  BRA    254C
.................... 			write_default_param_file(); 
024F6:  MOVLB  0
024F8:  CALL   0D80
.................... 			break; 
024FC:  MOVLB  8
024FE:  BRA    2548
.................... 		case 1999: 
.................... 			/* write config to EEPROM */ 
.................... 			if ( 1 != value ) return ILLEGAL_DATA_VALUE; 
02500:  MOVLB  8
02502:  DECFSZ xE7,W
02504:  BRA    250A
02506:  MOVF   xE8,F
02508:  BZ    2510
0250A:  MOVLW  03
0250C:  MOVWF  01
0250E:  BRA    254C
.................... 			write_param_file(); 
02510:  MOVLB  0
02512:  CALL   0D2C
.................... 			break; 
02516:  MOVLB  8
02518:  BRA    2548
.................... 		case 19999: 
.................... 			/* unlock factory programming registers when we get 1802 in passcode register */ 
.................... 			if ( 1802 != value ) { 
0251A:  MOVLB  8
0251C:  MOVF   xE7,W
0251E:  SUBLW  0A
02520:  BNZ   2528
02522:  MOVF   xE8,W
02524:  SUBLW  07
02526:  BZ    2534
.................... 				current.factory_unlocked=0; 
02528:  MOVLB  1
0252A:  CLRF   xD8
.................... 				return ILLEGAL_DATA_VALUE; 
0252C:  MOVLW  03
0252E:  MOVWF  01
02530:  MOVLB  8
02532:  BRA    254C
.................... 			} 
.................... 			current.factory_unlocked=1; 
02534:  MOVLW  01
02536:  MOVLB  1
02538:  MOVWF  xD8
.................... 			/* green LED for 2 seconds */ 
.................... 			timers.led_on_green=200; 
0253A:  MOVLW  C8
0253C:  MOVWF  xF7
.................... 			break; 
0253E:  MOVLB  8
02540:  BRA    2548
.................... 		default: 
.................... 			return ILLEGAL_DATA_ADDRESS; 
02542:  MOVLW  02
02544:  MOVWF  01
02546:  BRA    254C
....................  
.................... 	} 
....................  
.................... 	/* must not have triggered an exception */ 
.................... 	return 0; 
02548:  MOVLW  00
0254A:  MOVWF  01
.................... } 
0254C:  MOVLB  0
0254E:  RETURN 0
....................  
....................  
.................... void modbus_process(void) { 
.................... 	int16 start_addr; 
.................... 	int16 num_registers; 
.................... 	exception result; 
.................... 	int8 i; 
....................  
....................  
.................... 	/* check for message */ 
.................... 	if ( modbus_kbhit() ) { 
*
025E0:  GOTO   11A8
025E4:  MOVF   01,F
025E6:  BTFSC  FD8.2
025E8:  BRA    28CE
.................... output_low(_PIC_TO_PI); 
025EA:  BCF    F8C.3
.................... //		output_high(TP_RED); 
....................  
.................... 		if ( RS485_MODE_MODBUS_BRIDGE==config.rs485_port_mode && modbus_rx.address!=config.modbus_address ) { 
025EC:  DECFSZ 38,W
025EE:  BRA    26A2
025F0:  MOVF   36,W
025F2:  MOVLB  7
025F4:  SUBWF  xC7,W
025F6:  BTFSS  FD8.2
025F8:  BRA    25FE
025FA:  MOVLB  0
025FC:  BRA    26A2
.................... 			/* rebuld modbus packet and send to RS-485 port */ 
....................  
.................... 			/* start transmitting */ 
.................... 			output_high(RS485_DE); 
025FE:  BSF    F8C.1
.................... 			output_high(RS485_NRE); 
02600:  BSF    F8C.0
.................... 			/* 3.5 character delay (3500000/baud) */ 
.................... 			delay_us(365); /* 9600 */ 
02602:  CLRWDT
02604:  MOVLW  02
02606:  MOVLB  8
02608:  MOVWF  xDF
0260A:  MOVLW  B5
0260C:  MOVWF  xE0
0260E:  MOVLB  0
02610:  CALL   11CE
02614:  MOVLB  8
02616:  DECFSZ xDF,F
02618:  BRA    260A
....................  
.................... 			/* address */ 
.................... 			fputc(modbus_rx.address,STREAM_RS485); 
0261A:  MOVLB  7
0261C:  MOVF   xC7,W
0261E:  MOVLB  0
02620:  CALL   11EE
.................... 			delay_us(104); //one stop bit @ 9600 baud 
02624:  CLRWDT
02626:  MOVLW  67
02628:  MOVWF  00
0262A:  DECFSZ 00,F
0262C:  BRA    262A
0262E:  NOP   
....................  
.................... 			/* function */ 
.................... 			fputc(modbus_rx.func,STREAM_RS485); 
02630:  MOVLB  7
02632:  MOVF   xC9,W
02634:  MOVLB  0
02636:  CALL   11EE
.................... 			delay_us(104); //one stop bit @ 9600 baud 
0263A:  CLRWDT
0263C:  MOVLW  67
0263E:  MOVWF  00
02640:  DECFSZ 00,F
02642:  BRA    2640
02644:  NOP   
....................  
.................... 			/* data and (hopefully) CRC */ 
.................... 			for ( i=0 ; i<modbus_rx.len+2 ; i++ ) { 
02646:  MOVLB  8
02648:  CLRF   xDE
0264A:  MOVLW  02
0264C:  MOVLB  7
0264E:  ADDWF  xC8,W
02650:  MOVLB  8
02652:  SUBWF  xDE,W
02654:  BC    2682
.................... 				fputc(modbus_rx.data[i],STREAM_RS485); 
02656:  MOVLW  CB
02658:  ADDWF  xDE,W
0265A:  MOVWF  FE9
0265C:  MOVLW  07
0265E:  MOVWF  FEA
02660:  BTFSC  FD8.0
02662:  INCF   FEA,F
02664:  MOVFF  FEF,8DF
02668:  MOVF   xDF,W
0266A:  MOVLB  0
0266C:  CALL   11EE
.................... 				delay_us(104); //one stop bit @ 9600 baud 
02670:  CLRWDT
02672:  MOVLW  67
02674:  MOVWF  00
02676:  DECFSZ 00,F
02678:  BRA    2676
0267A:  NOP   
.................... 			} 
0267C:  MOVLB  8
0267E:  INCF   xDE,F
02680:  BRA    264A
....................  
.................... 			/* wait for transmitter buffer to empty */ 
.................... 			while ( ! TRMT2 ) 
.................... 				; 
02682:  BTFSS  F72.1
02684:  BRA    2682
.................... 			/* 3.5 character delay (3500000/baud) */ 
.................... 			delay_us(365); /* 9600 */ 
02686:  CLRWDT
02688:  MOVLW  02
0268A:  MOVWF  xDF
0268C:  MOVLW  B5
0268E:  MOVWF  xE0
02690:  MOVLB  0
02692:  CALL   11CE
02696:  MOVLB  8
02698:  DECFSZ xDF,F
0269A:  BRA    268C
.................... 			/* shut off transmitter */ 
.................... 			output_low(RS485_DE); 
0269C:  BCF    F8C.1
.................... 			output_low(RS485_NRE); 
0269E:  BCF    F8C.0
026A0:  MOVLB  0
....................  
.................... 		} 
....................  
.................... 		if ( 128==config.modbus_address || modbus_rx.address==config.modbus_address ) { 
026A2:  MOVF   36,W
026A4:  SUBLW  80
026A6:  BZ    26B4
026A8:  MOVF   36,W
026AA:  MOVLB  7
026AC:  SUBWF  xC7,W
026AE:  BTFSS  FD8.2
026B0:  BRA    28B8
026B2:  MOVLB  0
.................... 			/* Modbus statistics */ 
.................... 			if ( current.modbus_our_packets < 65535 ) 
026B4:  MOVLB  1
026B6:  INCFSZ xCC,W
026B8:  BRA    26C0
026BA:  INCFSZ xCD,W
026BC:  BRA    26C0
026BE:  BRA    26C6
.................... 				current.modbus_our_packets++; 
026C0:  INCF   xCC,F
026C2:  BTFSC  FD8.2
026C4:  INCF   xCD,F
.................... 	 
.................... 			/* green LED for 200 milliseconds */ 
.................... 			timers.led_on_green=20; 
026C6:  MOVLW  14
026C8:  MOVWF  xF7
....................  
.................... 			switch(modbus_rx.func) { 
026CA:  MOVLB  7
026CC:  MOVF   xC9,W
026CE:  XORLW  03
026D0:  MOVLB  0
026D2:  BZ    26E4
026D4:  XORLW  07
026D6:  BZ    26E4
026D8:  XORLW  02
026DA:  BZ    275C
026DC:  XORLW  16
026DE:  BTFSC  FD8.2
026E0:  BRA    27CE
026E2:  BRA    2890
.................... 				case FUNC_READ_HOLDING_REGISTERS: /* 3 */ 
.................... 				case FUNC_READ_INPUT_REGISTERS:   /* 4 */ 
.................... 					start_addr=make16(modbus_rx.data[0],modbus_rx.data[1]); 
026E4:  MOVFF  7CB,8DA
026E8:  MOVFF  7CC,8D9
.................... 					num_registers=make16(modbus_rx.data[2],modbus_rx.data[3]); 
026EC:  MOVFF  7CD,8DC
026F0:  MOVFF  7CE,8DB
.................... 	 
.................... 					/* make sure our address is within range */ 
.................... 					if ( ! modbus_valid_read_registers(start_addr,start_addr+num_registers) ) { 
026F4:  MOVLB  8
026F6:  MOVF   xDB,W
026F8:  ADDWF  xD9,W
026FA:  MOVWF  xDF
026FC:  MOVF   xDC,W
026FE:  ADDWFC xDA,W
02700:  MOVWF  xE0
02702:  MOVFF  8DA,8E2
02706:  MOVFF  8D9,8E1
0270A:  MOVWF  xE4
0270C:  MOVFF  8DF,8E3
02710:  MOVLB  0
02712:  GOTO   11F6
02716:  MOVF   01,F
02718:  BNZ   273E
.................... 					    modbus_exception_rsp(modbus_rx.address,modbus_rx.func,ILLEGAL_DATA_ADDRESS); 
0271A:  MOVFF  7C7,8DF
0271E:  MOVLB  8
02720:  CLRF   xE1
02722:  MOVFF  7C9,8E0
02726:  MOVLW  02
02728:  MOVWF  xE2
0272A:  MOVLB  0
0272C:  CALL   1356
.................... 						current.modbus_last_error=ILLEGAL_DATA_ADDRESS; 
02730:  MOVLB  1
02732:  CLRF   xD1
02734:  MOVLW  02
02736:  MOVWF  xD0
....................  
.................... 						/* red LED for 1 second */ 
.................... 						timers.led_on_green=0; 
02738:  CLRF   xF7
.................... 					} else { 
0273A:  BRA    275A
0273C:  MOVLB  0
.................... 						modbus_read_register_response(modbus_rx.func,modbus_rx.address,start_addr,num_registers); 
0273E:  MOVFF  7C9,8DF
02742:  MOVFF  7C7,8E0
02746:  MOVFF  8DA,8E2
0274A:  MOVFF  8D9,8E1
0274E:  MOVFF  8DC,8E4
02752:  MOVFF  8DB,8E3
02756:  BRA    20E8
02758:  MOVLB  1
.................... 					} 
.................... 					break; 
0275A:  BRA    28B0
.................... 				case FUNC_WRITE_SINGLE_REGISTER: /* 6 */ 
.................... 					start_addr=make16(modbus_rx.data[0],modbus_rx.data[1]); 
0275C:  MOVFF  7CB,8DA
02760:  MOVFF  7CC,8D9
....................  
.................... 					/* try the write */ 
.................... 					result=modbus_write_register(start_addr,make16(modbus_rx.data[2],modbus_rx.data[3])); 
02764:  MOVFF  7CD,8E0
02768:  MOVFF  7CE,8DF
0276C:  MOVFF  8DA,8E6
02770:  MOVFF  8D9,8E5
02774:  MOVFF  7CD,8E8
02778:  MOVFF  7CE,8E7
0277C:  RCALL  216A
0277E:  MOVFF  01,8DD
....................  
.................... 					if ( result ) { 
02782:  MOVLB  8
02784:  MOVF   xDD,F
02786:  BZ    27AA
.................... 						/* exception */ 
.................... 						modbus_exception_rsp(modbus_rx.address,modbus_rx.func,result); 
02788:  MOVFF  7C7,8DF
0278C:  CLRF   xE1
0278E:  MOVFF  7C9,8E0
02792:  MOVFF  8DD,8E2
02796:  MOVLB  0
02798:  CALL   1356
.................... 						current.modbus_last_error=result; 
0279C:  MOVLB  1
0279E:  CLRF   xD1
027A0:  MOVFF  8DD,1D0
....................  
.................... 						/* red LED for 1 second */ 
.................... 						timers.led_on_green=0; 
027A4:  CLRF   xF7
.................... 					}  else { 
027A6:  BRA    27CC
027A8:  MOVLB  8
.................... 						/* no exception, send ack */ 
.................... 						modbus_write_single_register_rsp(modbus_rx.address, 
.................... 							start_addr, 
.................... 							make16(modbus_rx.data[2],modbus_rx.data[3]) 
.................... 						); 
027AA:  MOVFF  7CD,8E0
027AE:  MOVFF  7CE,8DF
027B2:  MOVFF  7C7,8E1
027B6:  MOVFF  8DA,8E3
027BA:  MOVFF  8D9,8E2
027BE:  MOVFF  7CD,8E5
027C2:  MOVFF  7CE,8E4
027C6:  MOVLB  0
027C8:  BRA    2550
027CA:  MOVLB  1
.................... 					} 
.................... 					break; 
027CC:  BRA    28B0
.................... 				case FUNC_WRITE_MULTIPLE_REGISTERS: /* 16 */ 
.................... 					start_addr=make16(modbus_rx.data[0],modbus_rx.data[1]); 
027CE:  MOVFF  7CB,8DA
027D2:  MOVFF  7CC,8D9
.................... 					num_registers=make16(modbus_rx.data[2],modbus_rx.data[3]); 
027D6:  MOVFF  7CD,8DC
027DA:  MOVFF  7CE,8DB
....................  
.................... 					/* attempt to write each register. Stop if exception */ 
.................... 					for ( i=0 ; i<num_registers ; i++ ) { 
027DE:  MOVLB  8
027E0:  CLRF   xDE
027E2:  MOVF   xDC,F
027E4:  BNZ   27EC
027E6:  MOVF   xDB,W
027E8:  SUBWF  xDE,W
027EA:  BC    2870
.................... 						result=modbus_write_register(start_addr+i,make16(modbus_rx.data[5+i*2],modbus_rx.data[6+i*2])); 
027EC:  MOVF   xDE,W
027EE:  ADDWF  xD9,W
027F0:  MOVWF  xDF
027F2:  MOVLW  00
027F4:  ADDWFC xDA,W
027F6:  MOVWF  xE0
027F8:  BCF    FD8.0
027FA:  RLCF   xDE,W
027FC:  ADDLW  05
027FE:  ADDLW  CB
02800:  MOVWF  FE9
02802:  MOVLW  07
02804:  MOVWF  FEA
02806:  BTFSC  FD8.0
02808:  INCF   FEA,F
0280A:  MOVFF  FEF,8E1
0280E:  BCF    FD8.0
02810:  RLCF   xDE,W
02812:  ADDLW  06
02814:  ADDLW  CB
02816:  MOVWF  FE9
02818:  MOVLW  07
0281A:  MOVWF  FEA
0281C:  BTFSC  FD8.0
0281E:  INCF   FEA,F
02820:  MOVFF  FEF,8E2
02824:  MOVFF  8E1,8E4
02828:  MOVFF  8E2,8E3
0282C:  MOVFF  8E0,8E6
02830:  MOVFF  8DF,8E5
02834:  MOVFF  8E1,8E8
02838:  MOVFF  8E2,8E7
0283C:  MOVLB  0
0283E:  RCALL  216A
02840:  MOVFF  01,8DD
....................  
.................... 						if ( result ) { 
02844:  MOVLB  8
02846:  MOVF   xDD,F
02848:  BZ    286C
.................... 							/* exception */ 
.................... 							modbus_exception_rsp(modbus_rx.address,modbus_rx.func,result); 
0284A:  MOVFF  7C7,8DF
0284E:  CLRF   xE1
02850:  MOVFF  7C9,8E0
02854:  MOVFF  8DD,8E2
02858:  MOVLB  0
0285A:  CALL   1356
.................... 							current.modbus_last_error=result; 
0285E:  MOVLB  1
02860:  CLRF   xD1
02862:  MOVFF  8DD,1D0
.................... 	 
.................... 							/* red LED for 1 second */ 
.................... 							timers.led_on_green=0; 
02866:  CLRF   xF7
.................... 			 
.................... 							break; 
02868:  MOVLB  8
0286A:  BRA    2870
.................... 						} 
.................... 					} 
0286C:  INCF   xDE,F
0286E:  BRA    27E2
.................... 		 
.................... 					/* we could have gotten here with an exception already send, so only send if no exception */ 
.................... 					if ( 0 == result ) { 
02870:  MOVF   xDD,F
02872:  BNZ   288C
.................... 						/* no exception, send ack */ 
.................... 						modbus_write_multiple_registers_rsp(modbus_rx.address,start_addr,num_registers); 
02874:  MOVFF  7C7,8DF
02878:  MOVFF  8DA,8E1
0287C:  MOVFF  8D9,8E0
02880:  MOVFF  8DC,8E3
02884:  MOVFF  8DB,8E2
02888:  MOVLB  0
0288A:  BRA    2598
.................... 					} 
....................  
.................... 					break;   
0288C:  MOVLB  1
0288E:  BRA    28B0
.................... 				default: 
.................... 					/* we don't support most operations, so return ILLEGAL_FUNCTION exception */ 
.................... 					modbus_exception_rsp(modbus_rx.address,modbus_rx.func,ILLEGAL_FUNCTION); 
02890:  MOVFF  7C7,8DF
02894:  MOVLB  8
02896:  CLRF   xE1
02898:  MOVFF  7C9,8E0
0289C:  MOVLW  01
0289E:  MOVWF  xE2
028A0:  MOVLB  0
028A2:  CALL   1356
.................... 					current.modbus_last_error=ILLEGAL_FUNCTION; 
028A6:  MOVLB  1
028A8:  CLRF   xD1
028AA:  MOVLW  01
028AC:  MOVWF  xD0
....................  
.................... 					/* red led for 1 second */ 
.................... 					timers.led_on_green=0; 
028AE:  CLRF   xF7
.................... 			} 
.................... 			/* reset watchdog seconds now that we are done processing request */ 
.................... 			current.watchdog_seconds=0; 
028B0:  CLRF   xDA
028B2:  CLRF   xD9
....................  
.................... 		} else { 
028B4:  BRA    28CE
028B6:  MOVLB  7
.................... 			/* MODBUS packet for somebody else */ 
.................... 			if ( current.modbus_other_packets < 65535 ) 
028B8:  MOVLB  1
028BA:  INCFSZ xCE,W
028BC:  BRA    28C4
028BE:  INCFSZ xCF,W
028C0:  BRA    28C4
028C2:  BRA    28CA
.................... 				current.modbus_other_packets++; 
028C4:  INCF   xCE,F
028C6:  BTFSC  FD8.2
028C8:  INCF   xCF,F
....................  
.................... 			/* yellow LED 200 milliseconds */ 
.................... 			timers.led_on_green=10; 
028CA:  MOVLW  0A
028CC:  MOVWF  xF7
028CE:  MOVLB  0
.................... 		} 
....................  
.................... 	} 
.................... //	output_low(TP_RED); 
.................... } 
028D0:  GOTO   2D6C (RETURN)
....................  
....................  
.................... #include "interrupt_pcwx.c" 
.................... /* HIGH priority interrupt will interrupt other interrupts. Compiler will 
.................... automatically save all registers ... which seems to incur about a 60 cycle 
.................... penalty  
....................  
.................... this ISR polls anemometers and counts between falling edges. 
.................... */ 
.................... #int_timer2 HIGH 
.................... void isr_100us(void) { 
.................... 	static int8 tick=0; 
....................  
.................... 	/* anemometer polling state variables */ 
.................... 	/* anemometer 0 / PIN_B0 */ 
.................... 	short ext0_count; 
.................... 	short ext0_now; 
.................... 	static short ext0_last=0; 
.................... 	static short ext0_state=0; 
....................  
.................... 	/* anemometer 1 / PIN_B1 */ 
.................... 	short ext1_count; 
.................... 	short ext1_now; 
.................... 	static short ext1_last=0; 
.................... 	static short ext1_state=0; 
....................  
.................... 	/* anemometer 2 / PIN_B2 */ 
.................... 	short ext2_count; 
.................... 	short ext2_now; 
.................... 	static short ext2_last=0; 
.................... 	static short ext2_state=0; 
....................  
.................... //	output_high(TP_RED); 
.................... 	 
.................... 	/* count time between falling edges */ 
.................... 	if ( ext0_count && 0xffff != timers.pulse_period[0] ) 
*
0044E:  MOVLB  9
00450:  BTFSS  xEC.0
00452:  BRA    046C
00454:  MOVLB  1
00456:  INCFSZ xE6,W
00458:  BRA    0464
0045A:  INCFSZ xE7,W
0045C:  BRA    0464
0045E:  MOVLB  9
00460:  BRA    046C
00462:  MOVLB  1
.................... 		timers.pulse_period[0]++; 
00464:  INCF   xE6,F
00466:  BTFSC  FD8.2
00468:  INCF   xE7,F
0046A:  MOVLB  9
.................... 	if ( ext1_count && 0xffff != timers.pulse_period[1] ) 
0046C:  BTFSS  xEC.2
0046E:  BRA    0488
00470:  MOVLB  1
00472:  INCFSZ xE8,W
00474:  BRA    0480
00476:  INCFSZ xE9,W
00478:  BRA    0480
0047A:  MOVLB  9
0047C:  BRA    0488
0047E:  MOVLB  1
.................... 		timers.pulse_period[1]++; 
00480:  INCF   xE8,F
00482:  BTFSC  FD8.2
00484:  INCF   xE9,F
00486:  MOVLB  9
.................... 	if ( ext2_count && 0xffff != timers.pulse_period[2] ) 
00488:  BTFSS  xEC.4
0048A:  BRA    04A4
0048C:  MOVLB  1
0048E:  INCFSZ xEA,W
00490:  BRA    049C
00492:  INCFSZ xEB,W
00494:  BRA    049C
00496:  MOVLB  9
00498:  BRA    04A4
0049A:  MOVLB  1
.................... 		timers.pulse_period[2]++; 
0049C:  INCF   xEA,F
0049E:  BTFSC  FD8.2
004A0:  INCF   xEB,F
004A2:  MOVLB  9
....................  
.................... 	/* anemometer 0 / PIN_B0 trigger on falling edge */ 
.................... 	ext0_now=input(PIN_B0); 
004A4:  BCF    xEC.1
004A6:  BTFSC  F81.0
004A8:  BSF    xEC.1
.................... 	if ( 0 == ext0_now && 1 == ext0_last ) { 
004AA:  BTFSC  xEC.1
004AC:  BRA    0530
004AE:  MOVLB  7
004B0:  BTFSC  xC3.1
004B2:  BRA    04B8
004B4:  MOVLB  9
004B6:  BRA    0530
.................... 		current.pulse_count[0]++; 
004B8:  MOVLB  0
004BA:  INCF   xA9,F
004BC:  BTFSC  FD8.2
004BE:  INCF   xAA,F
.................... 		current.pulse_sum[0]++; 
004C0:  MOVLW  01
004C2:  ADDWF  xAF,F
004C4:  BTFSC  FD8.0
004C6:  INCF   xB0,F
004C8:  BTFSC  FD8.2
004CA:  INCF   xB1,F
004CC:  BTFSC  FD8.2
004CE:  INCF   xB2,F
.................... 		if ( 1 == ext0_state ) { 
004D0:  MOVLB  7
004D2:  BTFSS  xC3.2
004D4:  BRA    051E
.................... 			/* currently counting, time to finish */ 
.................... 			ext0_count=0; 
004D6:  MOVLB  9
004D8:  BCF    xEC.0
.................... 			current.pulse_period[0]=timers.pulse_period[0]; 
004DA:  MOVFF  1E7,98
004DE:  MOVFF  1E6,97
.................... 			if ( current.pulse_period[0] < current.pulse_min_period[0] ) { 
004E2:  MOVLB  0
004E4:  MOVF   x98,W
004E6:  SUBWF  x9E,W
004E8:  BNC   04FA
004EA:  BNZ   04F2
004EC:  MOVF   x9D,W
004EE:  SUBWF  x97,W
004F0:  BC    04FA
.................... 				current.pulse_min_period[0]=current.pulse_period[0]; 
004F2:  MOVFF  98,9E
004F6:  MOVFF  97,9D
.................... 			} 
.................... 			if ( current.pulse_period[0] > current.pulse_max_period[0] && current.pulse_period[0] != 65535  ) { 
004FA:  MOVF   xA4,W
004FC:  SUBWF  x98,W
004FE:  BNC   051A
00500:  BNZ   0508
00502:  MOVF   x97,W
00504:  SUBWF  xA3,W
00506:  BC    051A
00508:  INCFSZ x97,W
0050A:  BRA    0512
0050C:  INCFSZ x98,W
0050E:  BRA    0512
00510:  BRA    051A
.................... 				current.pulse_max_period[0]=current.pulse_period[0]; 
00512:  MOVFF  98,A4
00516:  MOVFF  97,A3
.................... 			} 
.................... 			ext0_state=0; 
0051A:  MOVLB  7
0051C:  BCF    xC3.2
.................... 		} 
.................... 		if ( 0 == ext0_state ) { 
0051E:  BTFSC  xC3.2
00520:  BRA    0530
.................... 			/* not counting, time to start */ 
.................... 			timers.pulse_period[0]=0; 
00522:  MOVLB  1
00524:  CLRF   xE7
00526:  CLRF   xE6
.................... 			ext0_count=1; 
00528:  MOVLB  9
0052A:  BSF    xEC.0
.................... 			ext0_state=1; 
0052C:  MOVLB  7
0052E:  BSF    xC3.2
.................... 		} 
.................... 	} 
.................... 	ext0_last = ext0_now; 
00530:  MOVLB  7
00532:  BCF    xC3.1
00534:  MOVLB  9
00536:  BTFSS  xEC.1
00538:  BRA    0540
0053A:  MOVLB  7
0053C:  BSF    xC3.1
0053E:  MOVLB  9
....................  
.................... 	/* anemometer 1 / PIN_B1 trigger on falling edge */ 
.................... 	ext1_now=input(PIN_B1); 
00540:  BCF    xEC.3
00542:  BTFSC  F81.1
00544:  BSF    xEC.3
.................... 	if ( 0 == ext1_now && 1 == ext1_last ) { 
00546:  BTFSC  xEC.3
00548:  BRA    05CC
0054A:  MOVLB  7
0054C:  BTFSC  xC3.3
0054E:  BRA    0554
00550:  MOVLB  9
00552:  BRA    05CC
.................... 		current.pulse_count[1]++; 
00554:  MOVLB  0
00556:  INCF   xAB,F
00558:  BTFSC  FD8.2
0055A:  INCF   xAC,F
.................... 		current.pulse_sum[1]++; 
0055C:  MOVLW  01
0055E:  ADDWF  xB3,F
00560:  BTFSC  FD8.0
00562:  INCF   xB4,F
00564:  BTFSC  FD8.2
00566:  INCF   xB5,F
00568:  BTFSC  FD8.2
0056A:  INCF   xB6,F
.................... 		if ( 1 == ext1_state ) { 
0056C:  MOVLB  7
0056E:  BTFSS  xC3.4
00570:  BRA    05BA
.................... 			/* currently counting, time to finish */ 
.................... 			ext1_count=0; 
00572:  MOVLB  9
00574:  BCF    xEC.2
.................... 			current.pulse_period[1]=timers.pulse_period[1]; 
00576:  MOVFF  1E9,9A
0057A:  MOVFF  1E8,99
.................... 			if ( current.pulse_period[1] < current.pulse_min_period[1] ) { 
0057E:  MOVLB  0
00580:  MOVF   x9A,W
00582:  SUBWF  xA0,W
00584:  BNC   0596
00586:  BNZ   058E
00588:  MOVF   x9F,W
0058A:  SUBWF  x99,W
0058C:  BC    0596
.................... 				current.pulse_min_period[1]=current.pulse_period[1]; 
0058E:  MOVFF  9A,A0
00592:  MOVFF  99,9F
.................... 			} 
.................... 			if ( current.pulse_period[1] > current.pulse_max_period[1] && current.pulse_period[1] != 65535 ) { 
00596:  MOVF   xA6,W
00598:  SUBWF  x9A,W
0059A:  BNC   05B6
0059C:  BNZ   05A4
0059E:  MOVF   x99,W
005A0:  SUBWF  xA5,W
005A2:  BC    05B6
005A4:  INCFSZ x99,W
005A6:  BRA    05AE
005A8:  INCFSZ x9A,W
005AA:  BRA    05AE
005AC:  BRA    05B6
.................... 				current.pulse_max_period[1]=current.pulse_period[1]; 
005AE:  MOVFF  9A,A6
005B2:  MOVFF  99,A5
.................... 			} 
.................... 			ext1_state=0; 
005B6:  MOVLB  7
005B8:  BCF    xC3.4
.................... 		} 
.................... 		if ( 0 == ext1_state ) { 
005BA:  BTFSC  xC3.4
005BC:  BRA    05CC
.................... 			/* not counting, time to start */ 
.................... 			timers.pulse_period[1]=0; 
005BE:  MOVLB  1
005C0:  CLRF   xE9
005C2:  CLRF   xE8
.................... 			ext1_count=1; 
005C4:  MOVLB  9
005C6:  BSF    xEC.2
.................... 			ext1_state=1; 
005C8:  MOVLB  7
005CA:  BSF    xC3.4
.................... 		} 
.................... 	} 
.................... 	ext1_last = ext1_now; 
005CC:  MOVLB  7
005CE:  BCF    xC3.3
005D0:  MOVLB  9
005D2:  BTFSS  xEC.3
005D4:  BRA    05DC
005D6:  MOVLB  7
005D8:  BSF    xC3.3
005DA:  MOVLB  9
....................  
.................... 	/* anemometer 2 / PIN_B2 trigger on falling edge */ 
.................... 	ext2_now=input(PIN_B2); 
005DC:  BCF    xEC.5
005DE:  BTFSC  F81.2
005E0:  BSF    xEC.5
.................... 	if ( 0 == ext2_now && 1 == ext2_last ) { 
005E2:  BTFSC  xEC.5
005E4:  BRA    0668
005E6:  MOVLB  7
005E8:  BTFSC  xC3.5
005EA:  BRA    05F0
005EC:  MOVLB  9
005EE:  BRA    0668
.................... 		current.pulse_count[2]++; 
005F0:  MOVLB  0
005F2:  INCF   xAD,F
005F4:  BTFSC  FD8.2
005F6:  INCF   xAE,F
.................... 		current.pulse_sum[2]++; 
005F8:  MOVLW  01
005FA:  ADDWF  xB7,F
005FC:  BTFSC  FD8.0
005FE:  INCF   xB8,F
00600:  BTFSC  FD8.2
00602:  INCF   xB9,F
00604:  BTFSC  FD8.2
00606:  INCF   xBA,F
.................... 		if ( 1 == ext2_state ) { 
00608:  MOVLB  7
0060A:  BTFSS  xC3.6
0060C:  BRA    0656
.................... 			/* currently counting, time to finish */ 
.................... 			ext2_count=0; 
0060E:  MOVLB  9
00610:  BCF    xEC.4
.................... 			current.pulse_period[2]=timers.pulse_period[2]; 
00612:  MOVFF  1EB,9C
00616:  MOVFF  1EA,9B
.................... 			if ( current.pulse_period[2] < current.pulse_min_period[2] ) { 
0061A:  MOVLB  0
0061C:  MOVF   x9C,W
0061E:  SUBWF  xA2,W
00620:  BNC   0632
00622:  BNZ   062A
00624:  MOVF   xA1,W
00626:  SUBWF  x9B,W
00628:  BC    0632
.................... 				current.pulse_min_period[2]=current.pulse_period[2]; 
0062A:  MOVFF  9C,A2
0062E:  MOVFF  9B,A1
.................... 			} 
.................... 			if ( current.pulse_period[2] > current.pulse_max_period[2] && current.pulse_period[2] != 65535 ) { 
00632:  MOVF   xA8,W
00634:  SUBWF  x9C,W
00636:  BNC   0652
00638:  BNZ   0640
0063A:  MOVF   x9B,W
0063C:  SUBWF  xA7,W
0063E:  BC    0652
00640:  INCFSZ x9B,W
00642:  BRA    064A
00644:  INCFSZ x9C,W
00646:  BRA    064A
00648:  BRA    0652
.................... 				current.pulse_max_period[2]=current.pulse_period[2]; 
0064A:  MOVFF  9C,A8
0064E:  MOVFF  9B,A7
.................... 			} 
.................... 			ext2_state=0; 
00652:  MOVLB  7
00654:  BCF    xC3.6
.................... 		} 
.................... 		if ( 0 == ext2_state ) { 
00656:  BTFSC  xC3.6
00658:  BRA    0668
.................... 			/* not counting, time to start */ 
.................... 			timers.pulse_period[2]=0; 
0065A:  MOVLB  1
0065C:  CLRF   xEB
0065E:  CLRF   xEA
.................... 			ext2_count=1; 
00660:  MOVLB  9
00662:  BSF    xEC.4
.................... 			ext2_state=1; 
00664:  MOVLB  7
00666:  BSF    xC3.6
.................... 		} 
.................... 	} 
.................... 	ext2_last = ext2_now; 
00668:  MOVLB  7
0066A:  BCF    xC3.5
0066C:  MOVLB  9
0066E:  BTFSS  xEC.5
00670:  BRA    0678
00672:  MOVLB  7
00674:  BSF    xC3.5
00676:  MOVLB  9
....................  
....................  
.................... 	/* every 10 cycles we tell main() loop to do milisecond activities */ 
.................... 	tick++; 
00678:  MOVLB  8
0067A:  INCF   xCE,F
.................... 	if ( 10 == tick ) { 
0067C:  MOVF   xCE,W
0067E:  SUBLW  0A
00680:  BNZ   068A
.................... 		tick=0; 
00682:  CLRF   xCE
.................... 		timers.now_millisecond=1; 
00684:  MOVLB  1
00686:  BSF    xFA.2
00688:  MOVLB  8
.................... 	} 
....................  
.................... //	output_low(TP_RED); 
.................... } 
....................  
0068A:  BCF    F9E.1
0068C:  MOVLB  0
0068E:  GOTO   013A
.................... #int_rda2 
.................... void isr_rda2() { 
.................... 	int8 c; 
....................  
.................... 	c=fgetc(STREAM_RS485); 
*
006AA:  BRA    0692
006AC:  MOVFF  01,9E9
.................... 	current.rda2_bytes_received++; 
006B0:  MOVLB  1
006B2:  INCF   xE4,F
006B4:  BTFSC  FD8.2
006B6:  INCF   xE5,F
....................  
.................... 	if ( RS485_MODE_MODBUS_BRIDGE == config.rs485_port_mode ) { 
006B8:  DECFSZ 38,W
006BA:  BRA    06DE
.................... 		/* add to buffer to send to PI */ 
....................  
.................... 		timers.rda2_buff_gap=0; 
006BC:  MOVLB  2
006BE:  CLRF   xFF
....................  
.................... 		if ( timers.rda2_buff_pos < sizeof(timers.rda2_buff)-1 ) { 
006C0:  INCFSZ xFE,W
006C2:  BRA    06C6
006C4:  BRA    06DA
.................... 			timers.rda2_buff[timers.rda2_buff_pos]=c; 
006C6:  MOVLW  FE
006C8:  ADDWF  xFE,W
006CA:  MOVWF  FE9
006CC:  MOVLW  01
006CE:  MOVWF  FEA
006D0:  BTFSC  FD8.0
006D2:  INCF   FEA,F
006D4:  MOVFF  9E9,FEF
.................... 			timers.rda2_buff_pos++; 
006D8:  INCF   xFE,F
.................... 		} 
.................... 	} else if ( RS485_MODE_NMEA0183_RX == config.rs485_port_mode ) { 
006DA:  BRA    0720
006DC:  MOVLB  1
006DE:  MOVF   38,W
006E0:  SUBLW  02
006E2:  BNZ   0722
.................... 		/* if we are in NMEA mode, we can also recognize \n or \r as the end of a sentence */ 
.................... 		if ( '\n' == c || '\r' == c  ) { 
006E4:  MOVLB  9
006E6:  MOVF   xE9,W
006E8:  SUBLW  0A
006EA:  BZ    06F2
006EC:  MOVF   xE9,W
006EE:  SUBLW  0D
006F0:  BNZ   0702
.................... 			if  ( timers.rda2_buff_pos > 0 ) { 
006F2:  MOVLB  2
006F4:  MOVF   xFE,F
006F6:  BZ    06FE
.................... 				/* mark new packet by a fake gap */ 
.................... 				timers.rda2_buff_gap=20; 
006F8:  MOVLW  14
006FA:  MOVWF  xFF
.................... 			}  else { 
006FC:  BRA    06FE
.................... 				/* do nothing if we are at beginning of next packet */ 
.................... 			} 
.................... 		} else { 
006FE:  BRA    0720
00700:  MOVLB  9
.................... 			/* add to buffer */ 
.................... 			timers.rda2_buff_gap=0; 
00702:  MOVLB  2
00704:  CLRF   xFF
....................  
.................... 			if ( timers.rda2_buff_pos < sizeof(timers.rda2_buff)-1 ) { 
00706:  INCFSZ xFE,W
00708:  BRA    070C
0070A:  BRA    0720
.................... 				timers.rda2_buff[timers.rda2_buff_pos]=c; 
0070C:  MOVLW  FE
0070E:  ADDWF  xFE,W
00710:  MOVWF  FE9
00712:  MOVLW  01
00714:  MOVWF  FEA
00716:  BTFSC  FD8.0
00718:  INCF   FEA,F
0071A:  MOVFF  9E9,FEF
.................... 				timers.rda2_buff_pos++; 
0071E:  INCF   xFE,F
00720:  MOVLB  1
.................... 			} 
.................... 		} 
.................... 	} 
.................... } 
....................  
.................... /* transmit buffer empty for Modbus to raspberry pi buffer */ 
00722:  BCF    FA4.5
00724:  MOVLB  0
00726:  GOTO   0094
.................... #int_tbe 
.................... void isr_uart1_tbe() { 
.................... 	if ( timers.rda_tx_pos >= timers.rda_tx_length ) { 
*
00732:  MOVLB  4
00734:  MOVF   x00,W
00736:  SUBWF  x01,W
00738:  BNC   0740
.................... 		/* done transmitting */ 
.................... 		timers.now_rda_tx_done=1; 
0073A:  BSF    x02.1
.................... 		disable_interrupts(INT_TBE); 
0073C:  BCF    F9D.4
.................... 	} else { 
0073E:  BRA    0758
.................... 		/* put another character into TX buffer */ 
.................... 		fputc(timers.rda_tx_buff[timers.rda_tx_pos], STREAM_PI); 
00740:  MOVF   x01,W
00742:  MOVWF  FE9
00744:  MOVLW  03
00746:  MOVWF  FEA
00748:  MOVFF  FEF,9E9
0074C:  MOVLB  9
0074E:  MOVF   xE9,W
00750:  MOVLB  0
00752:  RCALL  072A
.................... 		timers.rda_tx_pos++; 
00754:  MOVLB  4
00756:  INCF   x01,F
.................... 	} 
.................... } 
....................  
.................... /*  Raspberry PI connected serial port*/ 
00758:  BCF    F9E.4
0075A:  MOVLB  0
0075C:  GOTO   0094
.................... #int_rda 
.................... void isr_uart1_rx() { 
.................... 	int8 c; 
....................  
.................... 	c=fgetc(STREAM_PI); 
*
007A2:  RCALL  0760
007A4:  MOVFF  01,9E9
....................  
.................... 	current.rda_bytes_received++; 
007A8:  MOVLB  1
007AA:  INCF   xE2,F
007AC:  BTFSC  FD8.2
007AE:  INCF   xE3,F
....................  
.................... 	/* Modbus */ 
.................... 	if (!modbus_serial_new) { 
007B0:  MOVLB  7
007B2:  BTFSC  xC3.0
007B4:  BRA    080E
.................... 		if(modbus_serial_state == MODBUS_GETADDY) { 
007B6:  MOVF   xC4,F
007B8:  BNZ   07CC
.................... output_high(_PIC_TO_PI); 
007BA:  BSF    F8C.3
.................... 			modbus_serial_crc.d = 0xFFFF; 
007BC:  SETF   xC6
007BE:  SETF   xC5
.................... 			modbus_rx.address = c; 
007C0:  MOVFF  9E9,7C7
.................... 			modbus_serial_state++; 
007C4:  INCF   xC4,F
.................... 			modbus_rx.len = 0; 
007C6:  CLRF   xC8
.................... 			modbus_rx.error=0; 
007C8:  CLRF   xCA
.................... 		} else if(modbus_serial_state == MODBUS_GETFUNC) { 
007CA:  BRA    07FA
007CC:  DECFSZ xC4,W
007CE:  BRA    07D8
.................... 			modbus_rx.func = c; 
007D0:  MOVFF  9E9,7C9
.................... 			modbus_serial_state++; 
007D4:  INCF   xC4,F
.................... 		} else if(modbus_serial_state == MODBUS_GETDATA) { 
007D6:  BRA    07FA
007D8:  MOVF   xC4,W
007DA:  SUBLW  02
007DC:  BNZ   07FA
.................... 			if (modbus_rx.len>=MODBUS_SERIAL_RX_BUFFER_SIZE) { 
007DE:  INCFSZ xC8,W
007E0:  BRA    07E6
.................... 				modbus_rx.len=MODBUS_SERIAL_RX_BUFFER_SIZE-1; 
007E2:  MOVLW  FE
007E4:  MOVWF  xC8
.................... 			} 
.................... 			modbus_rx.data[modbus_rx.len]=c; 
007E6:  MOVLW  CB
007E8:  ADDWF  xC8,W
007EA:  MOVWF  FE9
007EC:  MOVLW  07
007EE:  MOVWF  FEA
007F0:  BTFSC  FD8.0
007F2:  INCF   FEA,F
007F4:  MOVFF  9E9,FEF
.................... 			modbus_rx.len++; 
007F8:  INCF   xC8,F
.................... 		} 
....................  
.................... 		modbus_calc_crc(c); 
007FA:  MOVFF  9E9,9EA
007FE:  MOVLB  0
00800:  RCALL  0776
.................... 		modbus_enable_timeout(TRUE); 
00802:  MOVLW  01
00804:  MOVLB  9
00806:  MOVWF  xEA
00808:  MOVLB  0
0080A:  RCALL  0408
0080C:  MOVLB  7
.................... 	} 
.................... } 
....................  
....................  
0080E:  BCF    F9E.5
00810:  MOVLB  0
00812:  GOTO   0094
.................... void set_rs485_speed(void) { 
.................... 	switch ( config.rs485_port_speed ) { 
*
00910:  MOVF   39,W
00912:  XORLW  00
00914:  BZ    092C
00916:  XORLW  01
00918:  BZ    093C
0091A:  XORLW  03
0091C:  BZ    094C
0091E:  XORLW  06
00920:  BZ    095C
00922:  XORLW  01
00924:  BZ    0968
00926:  XORLW  03
00928:  BZ    0978
0092A:  BRA    0984
.................... 		case RS485_SPEED_1200:  set_uart_speed(1200,STREAM_RS485); break; 
0092C:  BSF    F70.3
0092E:  MOVLW  C3
00930:  MOVWF  F75
00932:  MOVLW  09
00934:  MOVWF  F76
00936:  MOVLW  A6
00938:  MOVWF  F72
0093A:  BRA    0990
.................... 		case RS485_SPEED_2400:  set_uart_speed(2400,STREAM_RS485); break; 
0093C:  BSF    F70.3
0093E:  MOVLW  E1
00940:  MOVWF  F75
00942:  MOVLW  04
00944:  MOVWF  F76
00946:  MOVLW  A6
00948:  MOVWF  F72
0094A:  BRA    0990
.................... 		case RS485_SPEED_4800:  set_uart_speed(4800,STREAM_RS485); break; 
0094C:  BSF    F70.3
0094E:  MOVLW  70
00950:  MOVWF  F75
00952:  MOVLW  02
00954:  MOVWF  F76
00956:  MOVLW  A6
00958:  MOVWF  F72
0095A:  BRA    0990
.................... 		case RS485_SPEED_19200: set_uart_speed(19200,STREAM_RS485); break; 
0095C:  BCF    F70.3
0095E:  MOVLW  26
00960:  MOVWF  F75
00962:  MOVLW  A6
00964:  MOVWF  F72
00966:  BRA    0990
.................... 		case RS485_SPEED_38400: set_uart_speed(38400,STREAM_RS485); break; 
00968:  BSF    F70.3
0096A:  MOVLW  4D
0096C:  MOVWF  F75
0096E:  MOVLW  00
00970:  MOVWF  F76
00972:  MOVLW  A6
00974:  MOVWF  F72
00976:  BRA    0990
.................... 		case RS485_SPEED_57600: set_uart_speed(57600,STREAM_RS485); break;	 
00978:  BCF    F70.3
0097A:  MOVLW  0C
0097C:  MOVWF  F75
0097E:  MOVLW  A6
00980:  MOVWF  F72
00982:  BRA    0990
.................... 		default: set_uart_speed(9600, STREAM_RS485); break; 
00984:  BCF    F70.3
00986:  MOVLW  4D
00988:  MOVWF  F75
0098A:  MOVLW  A6
0098C:  MOVWF  F72
0098E:  BRA    0990
.................... 	} 
.................... } 
00990:  RETURN 0
....................  
.................... void init() { 
.................... 	int8 i; 
....................  
.................... 	setup_adc(ADC_OFF); 
00992:  BCF    FC2.0
....................  
.................... 	port_b_pullups(0b00001000); 
00994:  MOVLW  08
00996:  MOVWF  F61
00998:  BCF    FF1.7
....................  
.................... 	set_tris_a(0b00000000); 
0099A:  MOVLW  00
0099C:  MOVWF  F92
.................... 	set_tris_b(0b11111111); 
0099E:  MOVLW  FF
009A0:  MOVWF  F93
.................... 	set_tris_c(0b10010010); 
009A2:  MOVLW  92
009A4:  MOVWF  F94
.................... 	set_tris_d(0b10000000);  
009A6:  MOVLW  80
009A8:  MOVWF  F95
.................... 	set_tris_e(0b00000000); 
009AA:  BCF    F96.0
009AC:  BCF    F96.1
009AE:  BCF    F96.2
009B0:  BCF    F96.3
....................  
....................  
.................... 	/* data structure initialization */ 
.................... 	timers.led_on_green=0; 
009B2:  MOVLB  1
009B4:  CLRF   xF7
.................... 	timers.load_off_seconds=2; 
009B6:  CLRF   xF9
009B8:  MOVLW  02
009BA:  MOVWF  xF8
.................... 	timers.now_adc_sample=0; 
009BC:  BCF    xFA.0
.................... 	timers.now_adc_reset_count=0; 
009BE:  BCF    xFA.1
.................... 	timers.now_millisecond=0; 
009C0:  BCF    xFA.2
.................... 	timers.port_b=0b11111111; 
009C2:  SETF   xFB
.................... 	timers.port_c=0b11111111; 
009C4:  SETF   xFC
....................  
.................... 	timers.rda2_buff_pos=0; 
009C6:  MOVLB  2
009C8:  CLRF   xFE
.................... 	timers.rda2_buff_gap=255; 
009CA:  SETF   xFF
.................... 	timers.now_parse_rda2=0; 
009CC:  MOVLB  1
009CE:  BCF    xFD.0
....................  
.................... 	timers.rda_tx_length=0; 
009D0:  MOVLB  4
009D2:  CLRF   x00
.................... 	timers.rda_tx_pos=0; 
009D4:  CLRF   x01
.................... 	timers.now_rda_tx_ready=0; 
009D6:  BCF    x02.0
.................... 	timers.now_rda_tx_done=0; 
009D8:  BCF    x02.1
....................  
.................... 	for ( i=0 ; i<3 ; i++ ) { 
009DA:  MOVLB  8
009DC:  CLRF   xD9
009DE:  MOVF   xD9,W
009E0:  SUBLW  02
009E2:  BNC   0A92
.................... 		current.pulse_period[i]=0; 
009E4:  CLRF   03
009E6:  MOVFF  8D9,02
009EA:  BCF    FD8.0
009EC:  RLCF   02,F
009EE:  RLCF   03,F
009F0:  MOVF   02,W
009F2:  ADDLW  97
009F4:  MOVWF  FE9
009F6:  MOVLW  00
009F8:  ADDWFC 03,W
009FA:  MOVWF  FEA
009FC:  CLRF   FEC
009FE:  MOVF   FED,F
00A00:  CLRF   FEF
.................... 		current.pulse_min_period[i]=65535; 
00A02:  CLRF   03
00A04:  MOVFF  8D9,02
00A08:  BCF    FD8.0
00A0A:  RLCF   02,F
00A0C:  RLCF   03,F
00A0E:  MOVF   02,W
00A10:  ADDLW  9D
00A12:  MOVWF  FE9
00A14:  MOVLW  00
00A16:  ADDWFC 03,W
00A18:  MOVWF  FEA
00A1A:  SETF   FEC
00A1C:  MOVF   FED,F
00A1E:  SETF   FEF
.................... 		current.pulse_max_period[i]=0; 
00A20:  CLRF   03
00A22:  MOVFF  8D9,02
00A26:  BCF    FD8.0
00A28:  RLCF   02,F
00A2A:  RLCF   03,F
00A2C:  MOVF   02,W
00A2E:  ADDLW  A3
00A30:  MOVWF  FE9
00A32:  MOVLW  00
00A34:  ADDWFC 03,W
00A36:  MOVWF  FEA
00A38:  CLRF   FEC
00A3A:  MOVF   FED,F
00A3C:  CLRF   FEF
.................... 		current.pulse_count[i]=0; 
00A3E:  CLRF   03
00A40:  MOVFF  8D9,02
00A44:  BCF    FD8.0
00A46:  RLCF   02,F
00A48:  RLCF   03,F
00A4A:  MOVF   02,W
00A4C:  ADDLW  A9
00A4E:  MOVWF  FE9
00A50:  MOVLW  00
00A52:  ADDWFC 03,W
00A54:  MOVWF  FEA
00A56:  CLRF   FEC
00A58:  MOVF   FED,F
00A5A:  CLRF   FEF
.................... 		current.pulse_sum[i]=0; 
00A5C:  MOVLB  9
00A5E:  CLRF   xDE
00A60:  MOVFF  8D9,9DD
00A64:  CLRF   xE0
00A66:  MOVLW  04
00A68:  MOVWF  xDF
00A6A:  MOVLB  0
00A6C:  RCALL  08D4
00A6E:  MOVF   01,W
00A70:  ADDLW  AF
00A72:  MOVWF  FE9
00A74:  MOVLW  00
00A76:  ADDWFC 02,W
00A78:  MOVWF  FEA
00A7A:  MOVF   FEE,F
00A7C:  MOVF   FEE,F
00A7E:  CLRF   FEC
00A80:  MOVF   FED,F
00A82:  CLRF   FEF
00A84:  MOVF   FED,F
00A86:  CLRF   FEF
00A88:  MOVF   FED,F
00A8A:  CLRF   FEF
.................... 	} 
00A8C:  MOVLB  8
00A8E:  INCF   xD9,F
00A90:  BRA    09DE
....................  
.................... 	current.modbus_our_packets=0; 
00A92:  MOVLB  1
00A94:  CLRF   xCD
00A96:  CLRF   xCC
.................... 	current.modbus_other_packets=0; 
00A98:  CLRF   xCF
00A9A:  CLRF   xCE
.................... 	current.modbus_last_error=0; 
00A9C:  CLRF   xD1
00A9E:  CLRF   xD0
.................... 	current.sequence_number=0; 
00AA0:  CLRF   xD3
00AA2:  CLRF   xD2
.................... 	current.uptime_minutes=0; 
00AA4:  CLRF   xD5
00AA6:  CLRF   xD4
.................... 	current.interval_milliseconds=0; 
00AA8:  CLRF   xD7
00AAA:  CLRF   xD6
.................... 	current.adc_buffer_index=0; 
00AAC:  CLRF   xCB
.................... 	current.factory_unlocked=0; 
00AAE:  CLRF   xD8
.................... 	current.watchdog_seconds=0; 
00AB0:  CLRF   xDA
00AB2:  CLRF   xD9
.................... 	current.rda_bytes_received=0; 
00AB4:  CLRF   xE3
00AB6:  CLRF   xE2
.................... 	current.rda2_bytes_received=0; 
00AB8:  CLRF   xE5
00ABA:  CLRF   xE4
....................  
.................... 	/* zero out NMEA structure */ 
.................... 	memset(&nmea,0,sizeof(nmea)); 
00ABC:  MOVLW  04
00ABE:  MOVWF  FEA
00AC0:  MOVLW  03
00AC2:  MOVWF  FE9
00AC4:  CLRF   00
00AC6:  MOVWF  02
00AC8:  MOVLW  C0
00ACA:  MOVWF  01
00ACC:  MOVLB  0
00ACE:  RCALL  08F6
....................  
....................  
.................... 	/* power control switch */ 
.................... 	current.power_on_delay=config.power_on_above_delay; 
00AD0:  MOVFF  4C,1DD
00AD4:  MOVFF  4B,1DC
.................... 	current.power_off_delay=config.power_off_below_delay; 
00AD8:  MOVFF  48,1DF
00ADC:  MOVFF  47,1DE
.................... 	current.power_override_timeout=0; 
00AE0:  MOVLB  1
00AE2:  CLRF   xE1
00AE4:  CLRF   xE0
....................  
.................... 	/* UART2 - RS-485 port */ 
.................... 	set_rs485_speed(); 
00AE6:  MOVLB  0
00AE8:  RCALL  0910
....................  
....................  
.................... 	/* interrupts */ 
....................  
.................... 	/* one periodic interrupt @ 100uS. Generated from system 12 MHz clock */ 
.................... 	/* prescale=4, match=74, postscale=1. Match is 74 because when match occurs, one cycle is lost */ 
.................... 	setup_timer_2(T2_DIV_BY_4,74,1); 
00AEA:  MOVLW  00
00AEC:  IORLW  05
00AEE:  MOVWF  FBA
00AF0:  MOVLW  4A
00AF2:  MOVWF  FBB
....................  
.................... 	enable_interrupts(INT_TIMER2); 
00AF4:  BSF    F9D.1
.................... 	enable_interrupts(INT_RDA2); /* debug cable */ 
00AF6:  BSF    FA3.5
.................... 	/* RDA - PI is turned on in modbus_slave_pcwx's init */ 
.................... } 
00AF8:  GOTO   2BE8 (RETURN)
....................  
....................  
.................... void periodic_millisecond(void) { 
.................... 	static int8 uptimeticks=0; 
.................... 	static int16 adcTicks=0; 
.................... 	static int16 ticks=0; 
.................... 	/* button debouncing */ 
.................... //	static int16 b0_state=0; /* bridge push button */ 
.................... //	static int16 b1_state=0; /* reset line from PI */ 
.................... 	static int16 b2_state=0; /* watchdog line from PI */ 
.................... 	/* power control */ 
.................... 	static int16 adcValue; /* updates after each ADC sample run */ 
....................  
.................... 	timers.now_millisecond=0; 
*
01040:  MOVLB  1
01042:  BCF    xFA.2
....................  
.................... //	fputc('.',STREAM_RS485); 
....................  
.................... #if 0 
.................... 	/* button must be down for 12 milliseconds */ 
.................... 	b0_state=(b0_state<<1) | !bit_test(timers.port_b,BUTTON_BIT) | 0xe000; 
.................... 	if ( b0_state==0xf000) { 
.................... 		/* button pressed */ 
.................... 		current.bridged_uarts = !current.bridged_uarts; 
.................... 		fprintf(STREAM_RS485,"# bridged=%u\r\n",current.bridged_uarts); 
.................... 	} 
....................  
.................... 	/* if we are in bridged uarts ... only check for button press */ 
.................... 	if ( current.bridged_uarts ) { 
.................... 		return; 
.................... 	} 
.................... #endif 
....................  
.................... #if 0 
.................... 	/* reset must be down for 12 milliseconds */ 
.................... 	b1_state=(b1_state<<1) | !bit_test(timers.port_c,PIC_BOOTLOAD_REQUEST_BIT) | 0xe000; 
.................... 	if ( b1_state==0xf000) { 
.................... 		/* reset line asserted */ 
.................... 		if ( config.allow_bootload_request ) { 
.................... 			reset_cpu(); 
.................... 		} 
.................... 		/* BUG - I think that bootload request should be high for x milliseconds, rather than low */ 
.................... 	} 
.................... #endif 
....................  
.................... 	/* watchdog must be down for 12 milliseconds for hit to register */ 
.................... 	b2_state=(b2_state<<1) | !bit_test(timers.port_c,WATCHDOG_FROM_PI_BIT) | 0xe000; 
01044:  BCF    FD8.0
01046:  MOVLB  8
01048:  RLCF   xD4,W
0104A:  MOVWF  xD9
0104C:  RLCF   xD5,W
0104E:  MOVWF  xDA
01050:  MOVLW  00
01052:  MOVLB  1
01054:  BTFSS  xFC.5
01056:  MOVLW  01
01058:  MOVLB  8
0105A:  IORWF  xD9,F
0105C:  MOVFF  8D9,8D4
01060:  MOVF   xDA,W
01062:  IORLW  E0
01064:  MOVWF  xD5
.................... 	if ( b2_state==0xf000) { 
01066:  MOVF   xD4,F
01068:  BNZ   1070
0106A:  MOVF   xD5,W
0106C:  SUBLW  F0
0106E:  BNZ   1070
.................... 		/* watchdog hit */ 
.................... //		current.watchdog_seconds=0; 
.................... 	} 
....................  
.................... 	/* anemometers quit moving */ 
.................... 	if ( 0xffff == timers.pulse_period[0] ) 
01070:  MOVLB  1
01072:  INCFSZ xE6,W
01074:  BRA    1082
01076:  INCFSZ xE7,W
01078:  BRA    1082
.................... 				current.pulse_period[0]=0; 
0107A:  MOVLB  0
0107C:  CLRF   x98
0107E:  CLRF   x97
01080:  MOVLB  1
.................... 	if ( 0xffff == timers.pulse_period[1] ) 
01082:  INCFSZ xE8,W
01084:  BRA    1092
01086:  INCFSZ xE9,W
01088:  BRA    1092
.................... 				current.pulse_period[1]=0; 
0108A:  MOVLB  0
0108C:  CLRF   x9A
0108E:  CLRF   x99
01090:  MOVLB  1
.................... 	if ( 0xffff == timers.pulse_period[2] ) 
01092:  INCFSZ xEA,W
01094:  BRA    10A2
01096:  INCFSZ xEB,W
01098:  BRA    10A2
.................... 				current.pulse_period[2]=0; 
0109A:  MOVLB  0
0109C:  CLRF   x9C
0109E:  CLRF   x9B
010A0:  MOVLB  1
....................  
....................  
.................... 	/* read port_b and c pin states */ 
.................... 	timers.port_b=port_b; 
010A2:  MOVFF  F81,1FB
.................... 	timers.port_c=port_c; 
010A6:  MOVFF  F82,1FC
....................  
.................... 	/* green LED control */ 
.................... 	if ( 0==timers.led_on_green ) { 
010AA:  MOVF   xF7,F
010AC:  BNZ   10B2
.................... 		output_low(LED_GREEN); 
010AE:  BCF    F89.3
.................... 	} else { 
010B0:  BRA    10B6
.................... 		output_high(LED_GREEN); 
010B2:  BSF    F89.3
.................... 		timers.led_on_green--; 
010B4:  DECF   xF7,F
.................... 	} 
....................  
....................  
....................  
....................  
....................  
.................... 	/* some other random stuff that we don't need to do every cycle in main */ 
.................... 	if ( current.interval_milliseconds < 65535 ) { 
010B6:  INCFSZ xD6,W
010B8:  BRA    10C0
010BA:  INCFSZ xD7,W
010BC:  BRA    10C0
010BE:  BRA    10C6
.................... 		current.interval_milliseconds++; 
010C0:  INCF   xD6,F
010C2:  BTFSC  FD8.2
010C4:  INCF   xD7,F
.................... 	} 
....................  
.................... 	/* seconds */ 
.................... 	ticks++; 
010C6:  MOVLB  8
010C8:  INCF   xD2,F
010CA:  BTFSC  FD8.2
010CC:  INCF   xD3,F
.................... 	if ( 1000 == ticks ) { 
010CE:  MOVF   xD2,W
010D0:  SUBLW  E8
010D2:  BNZ   1158
010D4:  MOVF   xD3,W
010D6:  SUBLW  03
010D8:  BNZ   1158
.................... 		ticks=0; 
010DA:  CLRF   xD3
010DC:  CLRF   xD2
....................  
.................... 		/* watchdog power control of pi */ 
.................... 		if ( current.watchdog_seconds != 65535 ) { 
010DE:  MOVLB  1
010E0:  INCFSZ xD9,W
010E2:  BRA    10EA
010E4:  INCFSZ xDA,W
010E6:  BRA    10EA
010E8:  BRA    10F0
.................... 			current.watchdog_seconds++; 
010EA:  INCF   xD9,F
010EC:  BTFSC  FD8.2
010EE:  INCF   xDA,F
.................... 		} 
....................  
.................... 		/* shut off when: 
.................... 			a) watchdog_seconds_max != 0 AND watchdog_seconds is greater than watchdog_seconds_max AND it isn't already off  
.................... 		*/ 
.................... 		if ( 0 != config.watchdog_seconds_max && current.watchdog_seconds > config.watchdog_seconds_max && 0 == timers.load_off_seconds ) { 
010F0:  MOVF   40,F
010F2:  BNZ   10F8
010F4:  MOVF   41,F
010F6:  BZ    1116
010F8:  MOVF   41,W
010FA:  SUBWF  xDA,W
010FC:  BNC   1116
010FE:  BNZ   1106
01100:  MOVF   xD9,W
01102:  SUBWF  40,W
01104:  BC    1116
01106:  MOVF   xF8,F
01108:  BNZ   1116
0110A:  MOVF   xF9,F
0110C:  BNZ   1116
.................... 			timers.load_off_seconds=config.pi_offtime_seconds; 
0110E:  MOVFF  43,1F9
01112:  MOVFF  42,1F8
.................... 		} 
....................  
.................... 		/* control power to the raspberrry pi load */ 
.................... 		if ( 0==timers.load_off_seconds ) { 
01116:  MOVF   xF8,F
01118:  BNZ   1122
0111A:  MOVF   xF9,F
0111C:  BNZ   1122
.................... 			output_high(PI_POWER_EN); 
0111E:  BSF    F8B.0
.................... 		} else { 
01120:  BRA    1138
.................... 			output_low(PI_POWER_EN); 
01122:  BCF    F8B.0
.................... 			timers.load_off_seconds--; 
01124:  MOVF   xF8,W
01126:  BTFSC  FD8.2
01128:  DECF   xF9,F
0112A:  DECF   xF8,F
....................  
.................... 			if ( 0 == timers.load_off_seconds ) { 
0112C:  MOVF   xF8,F
0112E:  BNZ   1138
01130:  MOVF   xF9,F
01132:  BNZ   1138
.................... 				/* reset watchdog seconds so we can turn back on */ 
.................... 				current.watchdog_seconds=0; 
01134:  CLRF   xDA
01136:  CLRF   xD9
.................... 			} 
.................... 		} 
....................  
.................... 		 
.................... 		/* uptime counter */ 
.................... 		uptimeTicks++; 
01138:  MOVLB  8
0113A:  INCF   xCF,F
.................... 		if ( 60 == uptimeTicks ) { 
0113C:  MOVF   xCF,W
0113E:  SUBLW  3C
01140:  BNZ   1158
.................... 			uptimeTicks=0; 
01142:  CLRF   xCF
.................... 			if ( current.uptime_minutes < 65535 )  
01144:  MOVLB  1
01146:  INCFSZ xD4,W
01148:  BRA    1150
0114A:  INCFSZ xD5,W
0114C:  BRA    1150
0114E:  BRA    1156
.................... 				current.uptime_minutes++; 
01150:  INCF   xD4,F
01152:  BTFSC  FD8.2
01154:  INCF   xD5,F
01156:  MOVLB  8
.................... 		} 
.................... 	} 
....................  
.................... #if 0 
.................... 	LVD code  
.................... 	if ( 65535 == adcValue ) { 
.................... 		/* signaled that a new ADC sample was taken and we need to run again */ 
.................... 		/* read current ADC value */	 
.................... 		adcValue=adc_get(0); 
.................... 	} 
....................  
.................... 	if ( adcValue > config.power_on_above_adc ) { 
.................... 		if ( current.power_on_delay > 0 ) { 
.................... 			current.power_on_delay--; 
.................... 		} else { 
.................... 			current.p_on=1; 
.................... 		} 
.................... 	} else { 
.................... 		current.power_on_delay=config.power_on_above_delay; 
.................... 	} 
.................... 			 
....................  
.................... 	if ( adcValue < config.power_off_below_adc ) { 
.................... 		if ( current.power_off_delay > 0 ) { 
.................... 			current.power_off_delay--; 
.................... 		} else { 
.................... 			current.p_on=0; 
.................... 		} 
.................... 	} else { 
.................... 		current.power_off_delay=config.power_off_below_delay; 
.................... 	} 
.................... #endif	 
....................  
.................... 	/* ADC sample counter */ 
.................... 	if ( timers.now_adc_reset_count ) { 
01158:  MOVLB  1
0115A:  BTFSS  xFA.1
0115C:  BRA    1166
.................... 		timers.now_adc_reset_count=0; 
0115E:  BCF    xFA.1
.................... 		adcTicks=0; 
01160:  MOVLB  8
01162:  CLRF   xD1
01164:  CLRF   xD0
.................... 	} 
....................  
.................... 	/* ADC sampling trigger */ 
.................... 	adcTicks++; 
01166:  MOVLB  8
01168:  INCF   xD0,F
0116A:  BTFSC  FD8.2
0116C:  INCF   xD1,F
.................... 	if ( adcTicks == config.adc_sample_ticks ) { 
0116E:  MOVF   3D,W
01170:  SUBWF  xD0,W
01172:  BNZ   1188
01174:  MOVF   3E,W
01176:  SUBWF  xD1,W
01178:  BNZ   1188
.................... 		adcTicks=0; 
0117A:  CLRF   xD1
0117C:  CLRF   xD0
.................... 		timers.now_adc_sample=1; 
0117E:  MOVLB  1
01180:  BSF    xFA.0
.................... 		adcValue=65535; /* signal power control (above) on next pass to resample */ 
01182:  MOVLB  8
01184:  SETF   xD7
01186:  SETF   xD6
.................... 	} 
....................  
.................... 	/* for RS-485 port */ 
.................... 	if ( timers.rda2_buff_gap < 255 ) { 
01188:  MOVLB  2
0118A:  INCFSZ xFF,W
0118C:  BRA    1190
0118E:  BRA    1192
.................... 		timers.rda2_buff_gap++; 
01190:  INCF   xFF,F
.................... 	} 
....................  
.................... 	/* RS-485: if we have data and we have >=10 miliseconds gap, we parse */ 
.................... 	if ( timers.rda2_buff_gap >= 10 && timers.rda2_buff_pos>0 ) { 
01192:  MOVF   xFF,W
01194:  SUBLW  09
01196:  BC    11A2
01198:  MOVF   xFE,F
0119A:  BZ    11A2
.................... 		timers.now_parse_rda2=1;	 
0119C:  MOVLB  1
0119E:  BSF    xFD.0
011A0:  MOVLB  2
.................... 	} 
.................... } 
011A2:  MOVLB  0
011A4:  GOTO   2D5A (RETURN)
....................  
.................... /* copy up to n characters, stopping at \0 or \n or \r. Due to int8s, we are limited to < 255 characters */ 
.................... void strncpy_terminate_trim(int8 *dest, int8 *src, int8 validLength, int8 maxLength) { 
.................... 	int8 i; 
....................  
.................... 	/* copy until we get to \0 or \n or \r */ 
.................... 	for (i = 0 ; i < validLength && i < maxLength && src[i] != '\0' && src[i] != '\n' && src[i] != '\r' ; i++) { 
*
028D4:  MOVLB  9
028D6:  CLRF   xE5
028D8:  MOVF   xE3,W
028DA:  SUBWF  xE5,W
028DC:  BC    2950
028DE:  MOVF   xE4,W
028E0:  SUBWF  xE5,W
028E2:  BC    2950
028E4:  CLRF   03
028E6:  MOVF   xE5,W
028E8:  ADDWF  xE1,W
028EA:  MOVWF  FE9
028EC:  MOVF   xE2,W
028EE:  ADDWFC 03,W
028F0:  MOVWF  FEA
028F2:  MOVF   FEF,F
028F4:  BZ    2950
028F6:  CLRF   03
028F8:  MOVF   xE5,W
028FA:  ADDWF  xE1,W
028FC:  MOVWF  FE9
028FE:  MOVF   xE2,W
02900:  ADDWFC 03,W
02902:  MOVWF  FEA
02904:  MOVF   FEF,W
02906:  SUBLW  0A
02908:  BZ    2950
0290A:  CLRF   03
0290C:  MOVF   xE5,W
0290E:  ADDWF  xE1,W
02910:  MOVWF  FE9
02912:  MOVF   xE2,W
02914:  ADDWFC 03,W
02916:  MOVWF  FEA
02918:  MOVF   FEF,W
0291A:  SUBLW  0D
0291C:  BZ    2950
.................... 		dest[i] = src[i]; 
0291E:  CLRF   03
02920:  MOVF   xE5,W
02922:  ADDWF  xDF,W
02924:  MOVWF  01
02926:  MOVF   xE0,W
02928:  ADDWFC 03,F
0292A:  MOVFF  03,9E7
0292E:  CLRF   03
02930:  MOVF   xE5,W
02932:  ADDWF  xE1,W
02934:  MOVWF  FE9
02936:  MOVF   xE2,W
02938:  ADDWFC 03,W
0293A:  MOVWF  FEA
0293C:  MOVFF  FEF,9E8
02940:  MOVFF  9E7,FEA
02944:  MOVFF  01,FE9
02948:  MOVFF  9E8,FEF
.................... 	} 
0294C:  INCF   xE5,F
0294E:  BRA    28D8
....................  
.................... 	/* pad remaining space with \0 */ 
.................... 	for ( ; i < maxLength ; i++) { 
02950:  MOVF   xE4,W
02952:  SUBWF  xE5,W
02954:  BC    296A
.................... 		dest[i] = '\0'; 
02956:  CLRF   03
02958:  MOVF   xE5,W
0295A:  ADDWF  xDF,W
0295C:  MOVWF  FE9
0295E:  MOVF   xE0,W
02960:  ADDWFC 03,W
02962:  MOVWF  FEA
02964:  CLRF   FEF
.................... 	} 
02966:  INCF   xE5,F
02968:  BRA    2950
....................  
.................... 	/* always null terminate */ 
.................... 	dest[maxLength-1]='\0'; 
0296A:  MOVLW  01
0296C:  SUBWF  xE4,W
0296E:  CLRF   03
02970:  ADDWF  xDF,W
02972:  MOVWF  FE9
02974:  MOVF   xE0,W
02976:  ADDWFC 03,W
02978:  MOVWF  FEA
0297A:  CLRF   FEF
.................... } 
0297C:  MOVLB  0
0297E:  RETURN 0
....................  
....................  
.................... void rs485_to_host(void) { 
.................... 	int8 buff[sizeof(timers.rda2_buff)]; 
.................... 	int8 length; 
.................... 	int16 l; 
.................... 	int8 i; 
....................  
.................... 	/* get a local copy of our data */ 
.................... 	length=timers.rda2_buff_pos; 
*
02A18:  MOVFF  2FE,9D9
.................... 	timers.rda2_buff_pos=255; /* stop getting data briefly */ 
02A1C:  MOVLB  2
02A1E:  SETF   xFE
.................... 	memcpy(buff,timers.rda2_buff,length); 
02A20:  MOVLW  08
02A22:  MOVWF  FEA
02A24:  MOVLW  D9
02A26:  MOVWF  FE9
02A28:  MOVLW  01
02A2A:  MOVWF  FE2
02A2C:  MOVLW  FE
02A2E:  MOVWF  FE1
02A30:  MOVLB  9
02A32:  MOVF   xD9,W
02A34:  MOVWF  01
02A36:  BZ    2A40
02A38:  MOVFF  FE6,FEE
02A3C:  DECFSZ 01,F
02A3E:  BRA    2A38
.................... 	timers.rda2_buff_gap=0; 
02A40:  MOVLB  2
02A42:  CLRF   xFF
.................... 	timers.rda2_buff_pos=0; 
02A44:  CLRF   xFE
....................  
....................  
.................... 	if ( RS485_MODE_MODBUS_BRIDGE==config.rs485_port_mode ) { 
02A46:  DECFSZ 38,W
02A48:  BRA    2A80
.................... 		/* transmit back out to the PI */ 
.................... 		for ( l=0 ; l<length ; l++ ) { 
02A4A:  MOVLB  9
02A4C:  CLRF   xDB
02A4E:  CLRF   xDA
02A50:  MOVF   xDB,F
02A52:  BNZ   2A7C
02A54:  MOVF   xD9,W
02A56:  SUBWF  xDA,W
02A58:  BC    2A7C
.................... 			fputc(buff[l],STREAM_PI); 
02A5A:  MOVLW  D9
02A5C:  ADDWF  xDA,W
02A5E:  MOVWF  FE9
02A60:  MOVLW  08
02A62:  ADDWFC xDB,W
02A64:  MOVWF  FEA
02A66:  MOVFF  FEF,9DD
02A6A:  MOVF   xDD,W
02A6C:  MOVLB  0
02A6E:  CALL   072A
.................... 		} 
02A72:  MOVLB  9
02A74:  INCF   xDA,F
02A76:  BTFSC  FD8.2
02A78:  INCF   xDB,F
02A7A:  BRA    2A50
.................... 	} else if ( RS485_MODE_NMEA0183_RX==config.rs485_port_mode ) { 
02A7C:  BRA    2B3C
02A7E:  MOVLB  2
02A80:  MOVF   38,W
02A82:  SUBLW  02
02A84:  BNZ   2B3E
.................... 		/* do something */ 
....................  
.................... 		/* put copy in 11th slot no mater what ... for debugging */ 
.................... 		strncpy_terminate_trim(nmea.sentence[11],buff,length,NMEA_SENTENCE_LENGTH); 
02A86:  MOVLW  07
02A88:  MOVLB  9
02A8A:  MOVWF  xE0
02A8C:  MOVLW  73
02A8E:  MOVWF  xDF
02A90:  MOVLW  08
02A92:  MOVWF  xE2
02A94:  MOVLW  D9
02A96:  MOVWF  xE1
02A98:  MOVFF  9D9,9E3
02A9C:  MOVLW  50
02A9E:  MOVWF  xE4
02AA0:  MOVLB  0
02AA2:  RCALL  28D4
....................  
.................... 		/* too short to be a NMEA0183 sentence */ 
.................... 		if ( length < 6 ) { 
02AA4:  MOVLB  9
02AA6:  MOVF   xD9,W
02AA8:  SUBLW  05
02AAA:  BNC   2AAE
.................... 			return; 
02AAC:  BRA    2B3C
.................... 		} 
....................  
.................... 		/* search through list of sentences to record and see if we exist */ 
.................... 		for ( i=0 ; i<N_NMEA0183_SENTENCES ; i++ ) { 
02AAE:  CLRF   xDC
02AB0:  MOVF   xDC,W
02AB2:  SUBLW  0B
02AB4:  BNC   2B3C
.................... 			/* compare first six characters */ 
.................... 			if ( 0 != strncmp(buff,config.nmea0183_sentence[i],6) ) { 
02AB6:  MOVF   xDC,W
02AB8:  MULLW  06
02ABA:  MOVF   FF3,W
02ABC:  CLRF   03
02ABE:  ADDLW  4F
02AC0:  MOVWF  01
02AC2:  MOVLW  00
02AC4:  ADDWFC 03,F
02AC6:  MOVFF  01,9DD
02ACA:  MOVFF  03,9DE
02ACE:  MOVLW  08
02AD0:  MOVWF  xE0
02AD2:  MOVLW  D9
02AD4:  MOVWF  xDF
02AD6:  MOVFF  03,9E2
02ADA:  MOVFF  01,9E1
02ADE:  CLRF   xE4
02AE0:  MOVLW  06
02AE2:  MOVWF  xE3
02AE4:  MOVLB  0
02AE6:  BRA    2980
02AE8:  MOVF   01,F
02AEA:  BZ    2AEE
.................... 				/* no match */ 
.................... 				continue; 
02AEC:  BRA    2B36
.................... 			} 
....................  
.................... 			/* copy to appropriate slot */ 
.................... 			strncpy_terminate_trim(nmea.sentence[i],buff,length,NMEA_SENTENCE_LENGTH); 
02AEE:  MOVLB  9
02AF0:  CLRF   xDE
02AF2:  MOVFF  9DC,9DD
02AF6:  CLRF   xE0
02AF8:  MOVLW  50
02AFA:  MOVWF  xDF
02AFC:  MOVLB  0
02AFE:  CALL   08D4
02B02:  MOVFF  02,03
02B06:  MOVF   01,W
02B08:  ADDLW  03
02B0A:  MOVWF  01
02B0C:  MOVLW  04
02B0E:  ADDWFC 03,F
02B10:  MOVFF  01,9DD
02B14:  MOVLB  9
02B16:  MOVFF  03,9DE
02B1A:  MOVFF  03,9E0
02B1E:  MOVFF  01,9DF
02B22:  MOVLW  08
02B24:  MOVWF  xE2
02B26:  MOVLW  D9
02B28:  MOVWF  xE1
02B2A:  MOVFF  9D9,9E3
02B2E:  MOVLW  50
02B30:  MOVWF  xE4
02B32:  MOVLB  0
02B34:  RCALL  28D4
.................... 		} 
02B36:  MOVLB  9
02B38:  INCF   xDC,F
02B3A:  BRA    2AB0
02B3C:  MOVLB  2
.................... 	} 
.................... } 
02B3E:  MOVLB  0
02B40:  GOTO   2DA8 (RETURN)
....................  
....................  
.................... void main(void) { 
02B44:  CLRF   FF8
02B46:  BCF    FF1.2
02B48:  BSF    F9F.1
02B4A:  BCF    F9F.5
02B4C:  BCF    F9F.4
02B4E:  BCF    FA5.5
02B50:  BSF    FD0.7
02B52:  BSF    07.7
02B54:  CLRF   FEA
02B56:  CLRF   FE9
02B58:  CLRF   35
02B5A:  BCF    FB8.3
02B5C:  MOVLW  0C
02B5E:  MOVWF  FAF
02B60:  MOVLW  A6
02B62:  MOVWF  FAC
02B64:  MOVLW  90
02B66:  MOVWF  FAB
02B68:  BCF    F70.3
02B6A:  MOVLW  4D
02B6C:  MOVWF  F75
02B6E:  MOVLW  A6
02B70:  MOVWF  F72
02B72:  MOVLW  90
02B74:  MOVWF  F71
02B76:  MOVLB  7
02B78:  BCF    xC3.0
02B7A:  CLRF   xC4
02B7C:  MOVLB  8
02B7E:  CLRF   xCE
02B80:  MOVLB  7
02B82:  BCF    xC3.1
02B84:  BCF    xC3.2
02B86:  BCF    xC3.3
02B88:  BCF    xC3.4
02B8A:  BCF    xC3.5
02B8C:  BCF    xC3.6
02B8E:  MOVLB  8
02B90:  CLRF   xCF
02B92:  CLRF   xD1
02B94:  CLRF   xD0
02B96:  CLRF   xD3
02B98:  CLRF   xD2
02B9A:  CLRF   xD5
02B9C:  CLRF   xD4
02B9E:  MOVF   FC1,W
02BA0:  ANDLW  F0
02BA2:  MOVWF  FC1
02BA4:  MOVLW  00
02BA6:  MOVLB  F
02BA8:  MOVWF  x38
02BAA:  MOVWF  x3C
02BAC:  MOVWF  x39
02BAE:  MOVWF  x3A
02BB0:  MOVWF  x3B
02BB2:  MOVLB  1
02BB4:  CLRF   x88
02BB6:  CLRF   F77
02BB8:  CLRF   F78
02BBA:  CLRF   F79
02BBC:  CLRF   2F
02BBE:  CLRF   30
02BC0:  MOVLB  8
02BC2:  CLRF   xCA
02BC4:  CLRF   xCB
02BC6:  CLRF   xCC
02BC8:  CLRF   xCD
02BCA:  CLRF   xD6
02BCC:  CLRF   xD7
.................... 	int8 i; 
....................  
.................... 	i=restart_cause(); 
02BCE:  MOVF   FD0,W
02BD0:  ANDLW  0F
02BD2:  BTFSS  FD0.4
02BD4:  MOVLW  00
02BD6:  BSF    FD0.0
02BD8:  BSF    FD0.1
02BDA:  BSF    FD0.4
02BDC:  BSF    FD8.3
02BDE:  BSF    FD8.4
02BE0:  MOVWF  xD8
....................  
.................... 	init(); 
02BE2:  MOVLB  0
02BE4:  GOTO   0992
....................  
....................  
.................... #if 1 
.................... 	/* debugging messages sent on RS-485 port ... so we will start transmitting */ 
.................... 	output_high(RS485_DE); 
02BE8:  BSF    F8C.1
.................... 	output_high(RS485_NRE); 
02BEA:  BSF    F8C.0
....................  
....................  
.................... 	fprintf(STREAM_RS485,"# pcwx %s\r\n",__DATE__); 
02BEC:  MOVLW  16
02BEE:  MOVWF  FF6
02BF0:  MOVLW  08
02BF2:  MOVWF  FF7
02BF4:  MOVLW  07
02BF6:  MOVLB  8
02BF8:  MOVWF  xD9
02BFA:  MOVLB  0
02BFC:  CALL   0AFC
02C00:  MOVLW  22
02C02:  MOVWF  FF6
02C04:  MOVLW  08
02C06:  MOVWF  FF7
02C08:  CALL   0B26
02C0C:  MOVLW  0D
02C0E:  BTFSS  FA4.4
02C10:  BRA    2C0E
02C12:  MOVWF  F73
02C14:  MOVLW  0A
02C16:  BTFSS  FA4.4
02C18:  BRA    2C16
02C1A:  MOVWF  F73
.................... 	fprintf(STREAM_RS485,"# restart_cause()=%u ",i); 
02C1C:  MOVLW  2C
02C1E:  MOVWF  FF6
02C20:  MOVLW  08
02C22:  MOVWF  FF7
02C24:  MOVLW  12
02C26:  MOVLB  8
02C28:  MOVWF  xD9
02C2A:  MOVLB  0
02C2C:  CALL   0AFC
02C30:  MOVFF  8D8,8D9
02C34:  MOVLW  1B
02C36:  MOVLB  8
02C38:  MOVWF  xDA
02C3A:  MOVLB  0
02C3C:  GOTO   0B74
02C40:  MOVLW  20
02C42:  BTFSS  FA4.4
02C44:  BRA    2C42
02C46:  MOVWF  F73
....................  
.................... 	switch ( i ) { 
02C48:  MOVLB  8
02C4A:  MOVF   xD8,W
02C4C:  XORLW  07
02C4E:  MOVLB  0
02C50:  BZ    2C6C
02C52:  XORLW  0C
02C54:  BZ    2C7A
02C56:  XORLW  04
02C58:  BZ    2C88
02C5A:  XORLW  03
02C5C:  BZ    2C96
02C5E:  XORLW  02
02C60:  BZ    2CA4
02C62:  XORLW  0D
02C64:  BZ    2CB2
02C66:  XORLW  03
02C68:  BZ    2CC0
02C6A:  BRA    2CCE
.................... 		case WDT_TIMEOUT: fprintf(STREAM_RS485,"WDT_TIMEOUT"); break; 
02C6C:  MOVLW  42
02C6E:  MOVWF  FF6
02C70:  MOVLW  08
02C72:  MOVWF  FF7
02C74:  CALL   0B26
02C78:  BRA    2CDA
.................... 		case MCLR_FROM_SLEEP: fprintf(STREAM_RS485,"MCLR_FROM_SLEEP"); break; 
02C7A:  MOVLW  4E
02C7C:  MOVWF  FF6
02C7E:  MOVLW  08
02C80:  MOVWF  FF7
02C82:  CALL   0B26
02C86:  BRA    2CDA
.................... 		case MCLR_FROM_RUN: fprintf(STREAM_RS485,"MCLR_FROM_RUN"); break; 
02C88:  MOVLW  5E
02C8A:  MOVWF  FF6
02C8C:  MOVLW  08
02C8E:  MOVWF  FF7
02C90:  CALL   0B26
02C94:  BRA    2CDA
.................... 		case NORMAL_POWER_UP: fprintf(STREAM_RS485,"NORMAL_POWER_UP"); break; 
02C96:  MOVLW  6C
02C98:  MOVWF  FF6
02C9A:  MOVLW  08
02C9C:  MOVWF  FF7
02C9E:  CALL   0B26
02CA2:  BRA    2CDA
.................... 		case BROWNOUT_RESTART: fprintf(STREAM_RS485,"BROWNOUT_RESTART"); break; 
02CA4:  MOVLW  7C
02CA6:  MOVWF  FF6
02CA8:  MOVLW  08
02CAA:  MOVWF  FF7
02CAC:  CALL   0B26
02CB0:  BRA    2CDA
.................... 		case WDT_FROM_SLEEP: fprintf(STREAM_RS485,"WDT_FROM_SLEEP"); break; 
02CB2:  MOVLW  8E
02CB4:  MOVWF  FF6
02CB6:  MOVLW  08
02CB8:  MOVWF  FF7
02CBA:  CALL   0B26
02CBE:  BRA    2CDA
.................... 		case RESET_INSTRUCTION: fprintf(STREAM_RS485,"RESET_INSTRUCTION"); break; 
02CC0:  MOVLW  9E
02CC2:  MOVWF  FF6
02CC4:  MOVLW  08
02CC6:  MOVWF  FF7
02CC8:  CALL   0B26
02CCC:  BRA    2CDA
.................... 		default: fprintf(STREAM_RS485,"unknown!"); 
02CCE:  MOVLW  B0
02CD0:  MOVWF  FF6
02CD2:  MOVLW  08
02CD4:  MOVWF  FF7
02CD6:  CALL   0B26
.................... 	} 
.................... 	fprintf(STREAM_RS485,"\r\n"); 
02CDA:  MOVLW  BA
02CDC:  MOVWF  FF6
02CDE:  MOVLW  08
02CE0:  MOVWF  FF7
02CE2:  CALL   0B26
.................... #endif 
....................  
.................... //	fprintf(STREAM_RS485,"# read_param_file() starting ..."); 
.................... 	read_param_file(); 
02CE6:  GOTO   0E2C
.................... //	fprintf(STREAM_RS485," complete\r\n"); 
....................  
....................  
.................... 	if ( config.modbus_address > 128 ) { 
02CEA:  MOVF   36,W
02CEC:  SUBLW  80
02CEE:  BC    2CF4
.................... //		fprintf(STREAM_RS485,"# write_default_param_file() starting ..."); 
.................... 		write_default_param_file(); 
02CF0:  CALL   0D80
.................... //		fprintf(STREAM_RS485," complete\r\n"); 
.................... 	} 
.................... //	fprintf(STREAM_RS485,"# config.modbus_address=%u\r\n",config.modbus_address); 
....................  
.................... 	/* start Modbus slave */ 
.................... 	setup_uart(TRUE); 
02CF4:  BSF    FAB.7
02CF6:  BSF    FAB.4
.................... 	/* modbus_init turns on global interrupts */ 
.................... //	fprintf(STREAM_RS485,"# modbus_init() starting ..."); 
.................... 	modbus_init(); 
02CF8:  GOTO   0E8A
.................... //	fprintf(STREAM_RS485," complete\r\n"); 
....................  
.................... //	fprintf(STREAM_RS485,"# bridged_uarts=%u\r\n",current.bridged_uarts); 
....................  
.................... 	/* Prime ADC filter */ 
.................... 	for ( i=0 ; i<30 ; i++ ) { 
02CFC:  MOVLB  8
02CFE:  CLRF   xD8
02D00:  MOVF   xD8,W
02D02:  SUBLW  1D
02D04:  BNC   2D12
.................... 		adc_update(); 
02D06:  MOVLB  0
02D08:  CALL   0F48
.................... 	} 
02D0C:  MOVLB  8
02D0E:  INCF   xD8,F
02D10:  BRA    2D00
....................  
.................... 	/* set power switch to initial state */ 
.................... 	current.p_on=config.power_startup; 
02D12:  MOVFF  44,1DB
....................  
....................  
.................... #if 1 
.................... 	/* shut off RS-485 transmit once transmit buffer is empty */ 
.................... 	while ( ! TRMT2 ) 
.................... 		; 
02D16:  BTFSS  F72.1
02D18:  BRA    2D16
.................... 	output_low(RS485_DE); 
02D1A:  BCF    F8C.1
.................... 	output_low(RS485_NRE); 
02D1C:  BCF    F8C.0
.................... 	/* done with RS-485 port startup message */ 
.................... #endif 
....................  
.................... 	fprintf(STREAM_PI,"# pcwx %s\r\n",__DATE__); 
02D1E:  MOVLW  BE
02D20:  MOVWF  FF6
02D22:  MOVLW  08
02D24:  MOVWF  FF7
02D26:  MOVLW  07
02D28:  MOVWF  xD9
02D2A:  MOVLB  0
02D2C:  GOTO   0FF0
02D30:  MOVLW  CA
02D32:  MOVWF  FF6
02D34:  MOVLW  08
02D36:  MOVWF  FF7
02D38:  GOTO   101C
02D3C:  MOVLW  0D
02D3E:  BTFSS  F9E.4
02D40:  BRA    2D3E
02D42:  MOVWF  FAD
02D44:  MOVLW  0A
02D46:  BTFSS  F9E.4
02D48:  BRA    2D46
02D4A:  MOVWF  FAD
....................  
.................... 	for ( ; ; ) { 
.................... 		restart_wdt(); 
02D4C:  CLRWDT
....................  
....................  
.................... 		if ( timers.now_millisecond ) { 
02D4E:  MOVLB  1
02D50:  BTFSS  xFA.2
02D52:  BRA    2D5C
.................... 			periodic_millisecond(); 
02D54:  MOVLB  0
02D56:  GOTO   1040
02D5A:  MOVLB  1
.................... 		} 
....................  
....................  
.................... 		if ( timers.now_adc_sample ) { 
02D5C:  BTFSS  xFA.0
02D5E:  BRA    2D68
.................... 			timers.now_adc_sample=0; 
02D60:  BCF    xFA.0
.................... 			adc_update(); 
02D62:  MOVLB  0
02D64:  CALL   0F48
.................... 		} 
....................  
.................... 		modbus_process(); 
02D68:  MOVLB  0
02D6A:  BRA    25E0
....................  
....................  
.................... 		/* buffered modbus transmit */ 
....................  
.................... 		/* start transmitting */ 
.................... 		if ( timers.now_rda_tx_ready ) { 
02D6C:  MOVLB  4
02D6E:  BTFSS  x02.0
02D70:  BRA    2D84
.................... 			timers.now_rda_tx_ready=0; 
02D72:  BCF    x02.0
....................  
.................... //			output_high(_PIC_TO_PI); 
....................  
.................... 			RCV_OFF(); 
02D74:  BCF    F9D.5
....................  
.................... 			/* 3.5 character delay (3500000/baud) */ 
.................... 			delay_us(61); /* 57600 */ 
02D76:  CLRWDT
02D78:  MOVLW  3C
02D7A:  MOVWF  00
02D7C:  DECFSZ 00,F
02D7E:  BRA    2D7C
02D80:  NOP   
....................  
.................... 			/* enable transmit buffer empty interrupt. It will feed itself */ 
.................... 			enable_interrupts(INT_TBE); 
02D82:  BSF    F9D.4
.................... 		} 
....................  
.................... 		/* done transmitting */ 
.................... 		if ( timers.now_rda_tx_done ) { 
02D84:  BTFSS  x02.1
02D86:  BRA    2D9C
.................... 			timers.now_rda_tx_done=0; 
02D88:  BCF    x02.1
....................  
.................... 			/* 3.5 character delay (3500000/baud) */ 
.................... 			delay_us(61); /* 57600 */ 
02D8A:  CLRWDT
02D8C:  MOVLW  3C
02D8E:  MOVWF  00
02D90:  DECFSZ 00,F
02D92:  BRA    2D90
02D94:  NOP   
....................    			RCV_ON(); 
02D96:  MOVLB  0
02D98:  CALL   0E7E
....................  
.................... //			output_low(_PIC_TO_PI); 
.................... 		} 
....................  
....................  
....................  
.................... 		if ( timers.now_parse_rda2 ) { 
02D9C:  MOVLB  1
02D9E:  BTFSS  xFD.0
02DA0:  BRA    2DAA
.................... 			timers.now_parse_rda2=0; 
02DA2:  BCF    xFD.0
.................... 			rs485_to_host(); 
02DA4:  MOVLB  0
02DA6:  BRA    2A18
02DA8:  MOVLB  1
.................... 		} 
....................  
.................... 	} 
02DAA:  MOVLB  0
02DAC:  BRA    2D4C
.................... } 
02DAE:  SLEEP 

Configuration Fuses:
   Word  1: 2300   HSM NOPLLEN PRIMARY_ON NOFCMEN NOIESO
   Word  2: 3F1E   PUT BROWNOUT BORV19 WDT WDT32768
   Word  3: 3F00   CCP2C1 PBADEN CCP3B5 HFOFST TIMER3C0 CCP2D2 NOMCLR
   Word  4: 0081   STVREN NOLVP NOXINST NODEBUG
   Word  5: C00F   NOPROTECT NOCPB NOCPD
   Word  6: E00F   NOWRT NOWRTC NOWRTB NOWRTD
   Word  7: 400F   NOEBTR NOEBTRB
